(dp0
S'tagprogress'
p1
(dp2
S'/nas/Downloaded Torrents'
p3
(lp4
S'/nas/Downloaded Torrents/!Syd Barret/! FLAC/Syd Barrett - 1969 - The Madcap Laughs'
p5
aS'/nas/Downloaded Torrents/!Syd Barret/! FLAC/Syd Barrett - 1970 - Barret'
p6
aS'/nas/Downloaded Torrents/!Syd Barret/! FLAC/Syd Barrett - 1970 - The Peel Sessions'
p7
aS'/nas/Downloaded Torrents/!Syd Barret/! FLAC/Syd Barrett - 1988 - Opel - 1969-70'
p8
aS'/nas/Downloaded Torrents/12.Monkeys.S01E10.HDTV.x264-ASAP[ettv]/Sample'
p9
aS'/nas/Downloaded Torrents/12.Monkeys.S01E11.HDTV.x264-ASAP[ettv]/Sample'
p10
aS'/nas/Downloaded Torrents/25_More_Rock_Albums_For_Your_Head_And_Mind_(@256-320)/7th Temple - Under The Burning Sun (US Psych Rock 1978) (@256)'
p11
aS'/nas/Downloaded Torrents/25_More_Rock_Albums_For_Your_Head_And_Mind_(@256-320)/Bandolero - Life Is Love, Love Is All (Puerto Rico Heavy Psych. 1970) (@256)'
p12
aS'/nas/Downloaded Torrents/25_More_Rock_Albums_For_Your_Head_And_Mind_(@256-320)/Bang - Bang (1st Album Outstanding Hardrock US 1971) (@320)'
p13
aS'/nas/Downloaded Torrents/25_More_Rock_Albums_For_Your_Head_And_Mind_(@256-320)/Bead Game - Welcome (Great Psychedelic Rock US 1970) (@256)'
p14
aS'/nas/Downloaded Torrents/25_More_Rock_Albums_For_Your_Head_And_Mind_(@256-320)/Beauregard Ajax - Deep Priscilla (Great Psychedelia US 1967-68) (@256)'
p15
aS'/nas/Downloaded Torrents/25_More_Rock_Albums_For_Your_Head_And_Mind_(@256-320)/Bob Smith - The Visit (Superb Psychedelia US 1970) (@256)'
p16
aS'/nas/Downloaded Torrents/25_More_Rock_Albums_For_Your_Head_And_Mind_(@256-320)/Bold - Lullaby Opus Four (Late 60s Folk Rock US 1969) (@256)'
p17
aS'/nas/Downloaded Torrents/25_More_Rock_Albums_For_Your_Head_And_Mind_(@256-320)/Boot - Boot (US Hardrock 1972) (@256)'
p18
aS'/nas/Downloaded Torrents/25_More_Rock_Albums_For_Your_Head_And_Mind_(@256-320)/Breakthru - Adventures Highway (2CD) (Psychedelia UK 1967-70) (@256)/CD1'
p19
aS'/nas/Downloaded Torrents/25_More_Rock_Albums_For_Your_Head_And_Mind_(@256-320)/Breakthru - Adventures Highway (2CD) (Psychedelia UK 1967-70) (@256)/CD2'
p20
aS'/nas/Downloaded Torrents/25_More_Rock_Albums_For_Your_Head_And_Mind_(@256-320)/Buzzy Linhart - Buzzy (Good UK-US Acid-Influenced Folkrock 1968) (@256)'
p21
aS'/nas/Downloaded Torrents/25_More_Rock_Albums_For_Your_Head_And_Mind_(@256-320)/Chick Shannon & The Last Exit Band - Tears On The Console (1975) (@256)'
p22
aS'/nas/Downloaded Torrents/25_More_Rock_Albums_For_Your_Head_And_Mind_(@256-320)/Cold Sun - Dark Shadows (Superb Psychedelic Rock US 1970) (@256)'
p23
aS'/nas/Downloaded Torrents/25_More_Rock_Albums_For_Your_Head_And_Mind_(@256-320)/Creepy John Thomas - Brother Bat Boone & Selftitled (UK Hardrock 1969-72) (@256)'
p24
aS'/nas/Downloaded Torrents/25_More_Rock_Albums_For_Your_Head_And_Mind_(@256-320)/Fat - Selftitled (East Coast Bluesrock US 1970) (@256)'
p25
aS'/nas/Downloaded Torrents/25_More_Rock_Albums_For_Your_Head_And_Mind_(@256-320)/Felt - Felt (US Psychedelic Rock From Alabama 1971) (@256)'
p26
aS'/nas/Downloaded Torrents/25_More_Rock_Albums_For_Your_Head_And_Mind_(@256-320)/Flood - The Rise of (Rare Psychedelic Rock from NY 1972) (@256)'
p27
aS'/nas/Downloaded Torrents/25_More_Rock_Albums_For_Your_Head_And_Mind_(@256-320)/George Brigman - Jungle Rot (Stooges Like Fuzz Rock US 1975 & Bonus) (@256)'
p28
aS'/nas/Downloaded Torrents/25_More_Rock_Albums_For_Your_Head_And_Mind_(@256-320)/George Brigman - Jungle Rot (Stooges Like Fuzz Rock US 1975 & Bonus) (@256)/George Brigman & Split - Unreleased Fuzz 1977 (@320) (Bootleg)'
p29
aS'/nas/Downloaded Torrents/25_More_Rock_Albums_For_Your_Head_And_Mind_(@256-320)/Gold - Mission Rock (Live) (Very Good Hardrock US 1971) (@256)'
p30
aS'/nas/Downloaded Torrents/25_More_Rock_Albums_For_Your_Head_And_Mind_(@256-320)/Gold - Oregins S.F. 1970 (Great Heavyrock US 1970) (@256)'
p31
aS'/nas/Downloaded Torrents/25_More_Rock_Albums_For_Your_Head_And_Mind_(@256-320)/Gordon Jackson - Thinking Back (Rare Acid Folkrock UK 1969) (@256)'
p32
aS'/nas/Downloaded Torrents/25_More_Rock_Albums_For_Your_Head_And_Mind_(@256-320)/High Treason - High Treason (Great Psychedelic Rock US 1969) (@256)'
p33
aS'/nas/Downloaded Torrents/Complete Chicago House Classics'
p34
aS'/nas/Downloaded Torrents/Courtney Barnett - A Sea Of Split Peas (2013)'
p35
aS'/nas/Downloaded Torrents/Destroy All Software'
p36
aS'/nas/Downloaded Torrents/Foreign Beggars/01. Albums/2003 - Asylum Speakers'
p37
aS'/nas/Downloaded Torrents/Foreign Beggars/01. Albums/2006 - Bukkake Ski Trip'
p38
aS'/nas/Downloaded Torrents/Foreign Beggars/01. Albums/2006 - Stray Point Agenda'
p39
aS'/nas/Downloaded Torrents/Foreign Beggars/01. Albums/2008 - Asylum Agenda'
p40
aS'/nas/Downloaded Torrents/Foreign Beggars/01. Albums/2009 - United Colours of Beggattron'
p41
aS'/nas/Downloaded Torrents/Foreign Beggars/02. Singles & EPs/2002 - Where Did The Sun Go [VLS]'
p42
aS"/nas/Downloaded Torrents/Foreign Beggars/02. Singles & EPs/2003 - Season's Beatings [VLS]"
p43
aS'/nas/Downloaded Torrents/Junior Boys (FLAC)/2004 - Last Exit (2xCD) [DNO 38]/Disk 1'
p44
aS'/nas/Downloaded Torrents/Junior Boys (FLAC)/2004 - Last Exit (2xCD) [DNO 38]/Disk 2'
p45
aS'/nas/Downloaded Torrents/Junior Boys (FLAC)/2004 - Last Exit [KIN003]'
p46
aS'/nas/Downloaded Torrents/Junior Boys (FLAC)/2006 - So This Is Goodbye [DNO 114]'
p47
aS'/nas/Downloaded Torrents/Junior Boys (FLAC)/2007 - So This Is Goodbye (2xCD) [DNO 150]/Disc 1'
p48
aS'/nas/Downloaded Torrents/Junior Boys (FLAC)/2007 - So This Is Goodbye (2xCD) [DNO 150]/Disc 2'
p49
aS'/nas/Downloaded Torrents/Junior Boys (FLAC)/2009 - Begone Dull Care [DNO 215]'
p50
aS"/nas/Downloaded Torrents/Junior Boys (FLAC)/2011 - It's All True [DNO 293]"
p51
aS'/nas/Downloaded Torrents/Koan Discography/Coastline EP (2007)'
p52
aS'/nas/Downloaded Torrents/Koan Discography/Daniel Roeth - bamboo grove EP (2006)'
p53
aS'/nas/Downloaded Torrents/Koan Discography/KOAN - Frontiers (2000)'
p54
aS'/nas/Downloaded Torrents/Koan Discography/Koan -  Big Blue Mix 2014'
p55
aS'/nas/Downloaded Torrents/Koan Discography/Koan - Argonautica (2012)'
p56
aS"/nas/Downloaded Torrents/Koan Discography/Koan - Ariadne's Thread (2013)"
p57
aS"/nas/Downloaded Torrents/Koan Discography/Koan - Circe's Touch Remixes Vol 1 (2011)"
p58
aS"/nas/Downloaded Torrents/Koan Discography/Koan - Circe's Touch Remixes vol.2-2011"
p59
aS'/nas/Downloaded Torrents/Koan Discography/Koan - Fulfilled Wish (EP) (Sun Station 2007)'
p60
aS'/nas/Downloaded Torrents/Koan Discography/Koan - Koan Box \xe2\x80\x94 @ Blue Tunes (2014)'
p61
aS'/nas/Downloaded Torrents/Koan Discography/Koan - Legends  2010'
p62
aS'/nas/Downloaded Torrents/Koan Discography/Koan - Legends  2010/CD1 Inhale'
p63
aS'/nas/Downloaded Torrents/Koan Discography/Koan - Legends  2010/CD2 Exhale'
p64
aS'/nas/Downloaded Torrents/Koan Discography/Koan - Mitakuye Oyasin EP 2012'
p65
aS'/nas/Downloaded Torrents/Koan Discography/Koan - Red Path (2013)'
p66
aS'/nas/Downloaded Torrents/Koan Discography/koan - matariki (2009)'
p67
asS'/nas/Downloaded Torrents/25_More_Rock_Albums_For_Your_Head_And_Mind_(@256-320)'
p68
(lp69
S'/nas/Downloaded Torrents/25_More_Rock_Albums_For_Your_Head_And_Mind_(@256-320)/Curt Newbury - Half a Month of May Days (US Acid-Folk 1970) (@256)'
p70
aS'/nas/Downloaded Torrents/25_More_Rock_Albums_For_Your_Head_And_Mind_(@256-320)/Dragonwyck - Dragonwyck (Very Good Psychedelia US 1968-70) (@256)'
p71
aS'/nas/Downloaded Torrents/25_More_Rock_Albums_For_Your_Head_And_Mind_(@256-320)/Earthen Vessel - Earthen Vessel (Heavy Psychedelia US 1970) (@256)'
p72
aS'/nas/Downloaded Torrents/25_More_Rock_Albums_For_Your_Head_And_Mind_(@256-320)/Ellison - Selftitled (Superb Canadian Hardrock 1971) (@256)'
p73
assS'taghistory'
p74
c__builtin__
set
p75
((lp76
(S"/nas/Downloaded Torrents/Screamin' Jay Hawkins/1977 - I Put A Spell On You [Versatile, NED 1125]"
p77
tp78
a(S'/nas/Downloaded Torrents/[Richie Hawtin]/Richie Hawtin/Compilations/(2002) VA - The Sound Of The Third Season [CORMIX004]'
p79
tp80
a(S'/nas/Downloaded Torrents/[Richie Hawtin]/Plastikman/Singles & EP/(1997) Sickness [PLUS8058]'
p81
tp82
a(S"/nas/Downloaded Torrents/Screamin' Jay Hawkins/2000 - Best Of The Bizarre Sessions (1990..94)"
p83
tp84
a(S'/nas/Downloaded Torrents/Miles Davis Kind Of Blue [FLAC+MP3](Big Papi) 1997 Remaster Jazz/FLAC'
p85
tp86
a(S'/nas/Downloaded Torrents/[Richie Hawtin]/Richie Hawtin/Singles & EP/(1997) 005 [PLUS8068]'
p87
tp88
a(S'/nas/Downloaded Torrents/KING CRIMSON/[2011] A Scarcity Of Miracles (A King Crimson ProjeKct)'
p89
tp90
a(S'/nas/Downloaded Torrents/God Is An Astronaut - Discography - 2002-2013/Albums (Re-Issue)/2007 - Far From Refuge (2011 Remastered) - (320 kbps)'
p91
tp92
a(S'/nas/Downloaded Torrents/Koan Discography/Koan - Mitakuye Oyasin EP 2012'
p93
tp94
a(S'/nas/Downloaded Torrents/25_More_Rock_Albums_For_Your_Head_And_Mind_(@256-320)/Gold - Mission Rock (Live) (Very Good Hardrock US 1971) (@256)'
p95
tp96
a(S'/nas/Downloaded Torrents/Sigur Ro\xcc\x81s/Sigur Ro\xcc\x81s [Studio Album Discography] [5 CD] [FLAC] [CodeTempest]/[DISCS]/[1997]    Von'
p97
tp98
a(S'/nas/Downloaded Torrents/[Richie Hawtin]/Other/(1996) Concept 1 - Concept 1 [9601 - 9612]/[1996] Concept 1 - 96-12'
p99
tp100
a(S"/nas/Downloaded Torrents/Screamin' Jay Hawkins/1990 - Voodoo Jive (The Best of Screamin' Jay Hawkins)"
p101
tp102
a(S'/nas/Downloaded Torrents/12.Monkeys.S01E10.HDTV.x264-ASAP[ettv]/Sample'
p103
tp104
a(S'/nas/Downloaded Torrents/[Richie Hawtin]/Richie Hawtin/Compilations/(2001) DE9 Closer to the Edit [MINUS 08 CD]'
p105
tp106
a(S'/nas/Downloaded Torrents/Jon Hopkins/2004 - Jon Hopkins - Contact Note'
p107
tp108
a(S'/nas/Downloaded Torrents/God Is An Astronaut - Discography - 2002-2013/Albums (CD Original)/2005 - All Is Violent, All Is Bright - (320 kbps)'
p109
tp110
a(S'/nas/Downloaded Torrents/Jon Hopkins/2009 - Jon Hopkins - Insides'
p111
tp112
a(S'/nas/Downloaded Torrents/[Richie Hawtin]/Plastikman/Singles & EP/(2004) I Dont Know [MINUS 19]'
p113
tp114
a(S'/nas/Downloaded Torrents/25_More_Rock_Albums_For_Your_Head_And_Mind_(@256-320)/Creepy John Thomas - Brother Bat Boone & Selftitled (UK Hardrock 1969-72) (@256)'
p115
tp116
a(S'/nas/Downloaded Torrents/[Richie Hawtin]/Other/(1996) Concept 1 - Concept 1 [9601 - 9612]/[1996] Concept 1 - 96-09'
p117
tp118
a(S'/nas/Downloaded Torrents/Jon Hopkins/2011 - King Creosote & Jon Hopkins - Diamond Mine'
p119
tp120
a(S'/nas/Downloaded Torrents/[Richie Hawtin]/Plastikman/Singles & EP/(2002) Spastik [PLUS8078]'
p121
tp122
a(S'/nas/Downloaded Torrents/[Richie Hawtin]/F.U.S.E/Singles & EP/(1995) Loop [PLUS8054]'
p123
tp124
a(S'/nas/Downloaded Torrents/[Richie Hawtin]/Richie Hawtin/Singles & EP/(1999) Orange EP [none]'
p125
tp126
a(S"/nas/Downloaded Torrents/Screamin' Jay Hawkins/1991 - Cow Fingers And Mosquito Pie"
p127
tp128
a(S'/nas/Downloaded Torrents/Junior Boys (FLAC)/2007 - So This Is Goodbye (2xCD) [DNO 150]/Disc 1'
p129
S'/nas/Downloaded Torrents/Junior Boys (FLAC)/2007 - So This Is Goodbye (2xCD) [DNO 150]/Disc 2'
p130
tp131
a(S'/nas/Downloaded Torrents/[Richie Hawtin]/Other/(2007) Concept 1 - Concept 1 - 96CDVR [96CDVR]/96VR'
p132
tp133
a(S'/nas/Downloaded Torrents/God Is An Astronaut - Discography - 2002-2013/Albums (CD Original)/2010 - Age Of The Fifth Sun - (320 kbps)'
p134
tp135
a(S'/nas/Downloaded Torrents/[Richie Hawtin]/Plastikman/Singles & EP/(1998) Hypokondriak-Afrika [MINUS 03]'
p136
tp137
a(S'/nas/Downloaded Torrents/[Richie Hawtin]/Other/(2007) Concept 1 - Concept 1 - 96CDVR [96CDVR]/CD96'
p138
tp139
a(S'/nas/Downloaded Torrents/[Richie Hawtin]/Richie Hawtin/Compilations/(2007) VA - Nothing Much and Something More [MINUS 53 CD]/Richie Hawtin - Nothing Much (CD1)'
p140
tp141
a(S'/nas/Downloaded Torrents/Foreign Beggars/02. Singles & EPs/2002 - Where Did The Sun Go [VLS]'
p142
tp143
a(S'/nas/Downloaded Torrents/Sigur Ro\xcc\x81s/Sigur Ro\xcc\x81s [Studio Album Discography] [5 CD] [FLAC] [CodeTempest]/[DISCS]/[2008]    Me\xc3\xb0 su\xc3\xb0 i\xcc\x81 eyrum vi\xc3\xb0 spilum endalaust'
p144
tp145
a(S'/nas/Downloaded Torrents/[Richie Hawtin]/F.U.S.E/Singles & EP/(1992) The Unreleased Experiments [PLUS8019]'
p146
tp147
a(S'/nas/Downloaded Torrents/[Richie Hawtin]/Richie Hawtin/Compilations/(2006) DE9  Lite - Electronic Adventures [MIXMAG 05.06]'
p148
tp149
a(S'/nas/Downloaded Torrents/Koan Discography/Koan - Fulfilled Wish (EP) (Sun Station 2007)'
p150
tp151
a(S'/nas/Downloaded Torrents/Black Dog Productions - Bytes (1993) FLAC'
p152
tp153
a(S'/nas/Downloaded Torrents/[Richie Hawtin]/Other/(1996) Concept 1 - Concept 1 [9601 - 9612]/[1996] Concept 1 - 96-01'
p154
tp155
a(S"/nas/Downloaded Torrents/Screamin' Jay Hawkins/2005 - I Put A Spell On You (The Best Of) [Master Classics, MCS 8043-2]"
p156
tp157
a(S"/nas/Downloaded Torrents/Screamin' Jay Hawkins/1998 - At Last"
p158
tp159
a(S'/nas/Downloaded Torrents/Jon Hopkins/2010 - Jon Hopkins - Monsters'
p160
tp161
a(S'/nas/Downloaded Torrents/[Richie Hawtin]/F.U.S.E/Singles & EP/(2001) Hypnofreak  NT [PLUS8076]'
p162
tp163
a(S'/nas/Downloaded Torrents/25_More_Rock_Albums_For_Your_Head_And_Mind_(@256-320)/Curt Newbury - Half a Month of May Days (US Acid-Folk 1970) (@256)'
p164
tp165
a(S'/nas/Downloaded Torrents/25_More_Rock_Albums_For_Your_Head_And_Mind_(@256-320)/Breakthru - Adventures Highway (2CD) (Psychedelia UK 1967-70) (@256)/CD1'
p166
S'/nas/Downloaded Torrents/25_More_Rock_Albums_For_Your_Head_And_Mind_(@256-320)/Breakthru - Adventures Highway (2CD) (Psychedelia UK 1967-70) (@256)/CD2'
p167
tp168
a(S'/nas/Downloaded Torrents/25_More_Rock_Albums_For_Your_Head_And_Mind_(@256-320)/Felt - Felt (US Psychedelic Rock From Alabama 1971) (@256)'
p169
tp170
a(S'/nas/Downloaded Torrents/[Richie Hawtin]/Other/(1996) Concept 1 - Concept 1 [9601 - 9612]/[1996] Concept 1 - 96-11'
p171
tp172
a(S'/nas/Downloaded Torrents/[Richie Hawtin]/Plastikman/Mixes/(2010) Plastikman Exclusive Mix [URB Magazine]'
p173
tp174
a(S'/nas/Downloaded Torrents/[Richie Hawtin]/Richie Hawtin/Compilations/(1994) VA - Richie Hawtin & John Acquaviva - X-Mix-3 - Enter Digital Reality! [!K7032CD]'
p175
tp176
a(S'/nas/Downloaded Torrents/Junior Boys (FLAC)/2004 - Last Exit [KIN003]'
p177
tp178
a(S"/nas/Downloaded Torrents/Screamin' Jay Hawkins/1990 - Spellbound"
p179
tp180
a(S'/nas/Downloaded Torrents/God Is An Astronaut - Discography - 2002-2013/Singles/2003 - Point Pleasant (Single) - (320 kbps)'
p181
tp182
a(S'/nas/Downloaded Torrents/KING CRIMSON/[1984] Three Of A Perfect Pair'
p183
tp184
a(S'/nas/Downloaded Torrents/[Richie Hawtin]/Plastikman/Singles & EP/(1996) Plastikprodukts Member CD.1996 [PPCD01]'
p185
tp186
a(S'/nas/Downloaded Torrents/Sigur Ro\xcc\x81s/Sigur Ro\xcc\x81s [Studio Album Discography] [5 CD] [FLAC] [CodeTempest]/[DISCS]/[1999]    A\xcc\x81g\xc3\xa6tis byrjun'
p187
tp188
a(S'/nas/Downloaded Torrents/KING CRIMSON/[2000] Heaven & Earth (by ProjeKct X)'
p189
tp190
a(S'/nas/Downloaded Torrents/Tim Hecker/2013 - Virgins'
p191
tp192
a(S'/nas/Downloaded Torrents/[Richie Hawtin]/Plastikman/Singles & EP/(2002) Spastik (remastered) [12nomu28]'
p193
tp194
a(S'/nas/Downloaded Torrents/[Richie Hawtin]/Plastikman/Singles & EP/(2002) Kontakt [MINUSK1]'
p195
tp196
a(S'/nas/Downloaded Torrents/[Richie Hawtin]/F.U.S.E/Singles & EP/(1999) Epok CD [MINUS 5 CD]'
p197
tp198
a(S'/nas/Downloaded Torrents/KING CRIMSON/[1971] Islands'
p199
tp200
a(S'/nas/Downloaded Torrents/Jon Hopkins/2013 - Jon Hopkins - How I Live Now'
p201
tp202
a(S'/nas/Downloaded Torrents/25_More_Rock_Albums_For_Your_Head_And_Mind_(@256-320)/Dragonwyck - Dragonwyck (Very Good Psychedelia US 1968-70) (@256)'
p203
tp204
a(S'/nas/Downloaded Torrents/[Richie Hawtin]/Richie Hawtin/Pete Namlook & Richie Hawtin/(2000) From Within II [MINUS FW 2-4]'
p205
tp206
a(S"/nas/Downloaded Torrents/Screamin' Jay Hawkins/2006 - At Home with Screamin' Jay Hawkins"
p207
tp208
a(S'/nas/Downloaded Torrents/25_More_Rock_Albums_For_Your_Head_And_Mind_(@256-320)/Gold - Oregins S.F. 1970 (Great Heavyrock US 1970) (@256)'
p209
tp210
a(S"/nas/Downloaded Torrents/Screamin' Jay Hawkins/1991 - I Shake My Stick At You"
p211
tp212
a(S'/nas/Downloaded Torrents/[Richie Hawtin]/Richie Hawtin/Compilations/(1999) Decks, EFX & 909 [MINUS 04 CD]'
p213
tp214
a(S'/nas/Downloaded Torrents/!Syd Barret/! FLAC/Syd Barrett - 1969 - The Madcap Laughs'
p215
tp216
a(S'/nas/Downloaded Torrents/God Is An Astronaut - Discography - 2002-2013/Singles/2009 - Shining Through (Single)'
p217
tp218
a(S'/nas/Downloaded Torrents/Tim Hecker/2002 - My Love is Rotten to the Core'
p219
tp220
a(S'/nas/Downloaded Torrents/[Richie Hawtin]/Richie Hawtin/Mixes/(2008) RA.100 [RA.100]'
p221
tp222
a(S'/nas/Downloaded Torrents/[Richie Hawtin]/Other/(1996) Concept 1 - Concept 1 [9601 - 9612]/[1996] Concept 1 - 96-02'
p223
tp224
a(S"/nas/Downloaded Torrents/Foreign Beggars/02. Singles & EPs/2003 - Season's Beatings [VLS]"
p225
tp226
a(S'/nas/Downloaded Torrents/[Richie Hawtin]/Plastikman/Singles & EP/(1993) Krakpot [12 NoMu 25]'
p227
tp228
a(S'/nas/Downloaded Torrents/[Richie Hawtin]/Plastikman/Albums/(1994) Musik [PLUS8043]'
p229
tp230
a(S'/nas/Downloaded Torrents/[Richie Hawtin]/Other/(1996) Concept 1 - Concept 1 [9601 - 9612]/[1996] Concept 1 - 96-10'
p231
tp232
a(S'/nas/Downloaded Torrents/!Syd Barret/! FLAC/Syd Barrett - 1988 - Opel - 1969-70'
p233
tp234
a(S'/nas/Downloaded Torrents/[Richie Hawtin]/Plastikman/Albums/(1998) Consumed [MINUS 01 CD]'
p235
tp236
a(S'/nas/Downloaded Torrents/God Is An Astronaut - Discography - 2002-2013/Singles/2006 - Beyond The Dying Light (Single) - (320 kbps)'
p237
tp238
a(S'/nas/Downloaded Torrents/Moderat - II (Deluxe) [2013]'
p239
tp240
a(S"/nas/Downloaded Torrents/[Richie Hawtin]/Other/(2004) Forcept 1 - FR01 (Akufen's Concept 1 Reinterpretations Volume 1) [FR01]"
p241
tp242
a(S'/nas/Downloaded Torrents/Acoustica - Alarm Will Sound Performs Aphex Twin'
p243
tp244
a(S'/nas/Downloaded Torrents/God Is An Astronaut - Discography - 2002-2013/Singles/2010 - In The Distance Fading (Single) - (320 kbps)'
p245
tp246
a(S'/nas/Downloaded Torrents/Jon Hopkins/2010 - Brian Eno, Jon Hopkins & Leo Abrahams - Small Craft On A Milk Sea'
p247
tp248
a(S'/nas/Downloaded Torrents/[Richie Hawtin]/Richie Hawtin/Compilations/(2001) DE9  Closer To The Edit (Parts) [MINUS 08 LP]'
p249
tp250
a(S'/nas/Downloaded Torrents/[Richie Hawtin]/Plastikman/Albums/(1998) Artefakts (BC) [MINUS 03 CD]'
p251
tp252
a(S'/nas/Downloaded Torrents/[Richie Hawtin]/F.U.S.E/Singles & EP/(1993) Train-Tracs [TVT 8708-2]'
p253
tp254
a(S'/nas/Downloaded Torrents/[Richie Hawtin]/Richie Hawtin/Singles & EP/(1999) Minus Yellow [MINUS Yellow]'
p255
tp256
a(S'/nas/Downloaded Torrents/Destroy All Software'
p257
tp258
a(S'/nas/Downloaded Torrents/[Richie Hawtin]/Plastikman/Albums/(2003) Closer [MINUS 18 CD]'
p259
tp260
a(S'/nas/Downloaded Torrents/Koan Discography/Koan - Legends  2010'
p261
S'/nas/Downloaded Torrents/Koan Discography/Koan - Legends  2010/CD1 Inhale'
p262
S'/nas/Downloaded Torrents/Koan Discography/Koan - Legends  2010/CD2 Exhale'
p263
tp264
a(S"/nas/Downloaded Torrents/Koan Discography/Koan - Circe's Touch Remixes vol.2-2011"
p265
tp266
a(S'/nas/Downloaded Torrents/Courtney Barnett - A Sea Of Split Peas (2013)'
p267
tp268
a(S'/nas/Downloaded Torrents/[Richie Hawtin]/Richie Hawtin/Singles & EP/(1999) Minus Orange [M_NUS ORANGE]'
p269
tp270
a(S'/nas/Downloaded Torrents/[Richie Hawtin]/Richie Hawtin/Singles & EP/(1995) Call It What You Want! [PLUS8050]'
p271
tp272
a(S'/nas/Downloaded Torrents/Silver Apples of the Moon - The Wild Bull'
p273
tp274
a(S'/nas/Downloaded Torrents/God Is An Astronaut - Discography - 2002-2013/Singles/2003 - From Dust To The Beyond (Single) - (320 kbps)'
p275
tp276
a(S'/nas/Downloaded Torrents/God Is An Astronaut - Discography - 2002-2013/Albums (Re-Issue)/2010 - Age Of The Fifth Sun (2011 Remastered) - (320 kbps)'
p277
tp278
a(S'/nas/Downloaded Torrents/[Richie Hawtin]/Plastikman/Albums/(1993) Sheet One [NoMu 22 CD]'
p279
tp280
a(S'/nas/Downloaded Torrents/God Is An Astronaut - Discography - 2002-2013/Singles/2006 - Tempus Horizon (Single) - (320 kbps)'
p281
tp282
a(S'/nas/Downloaded Torrents/God Is An Astronaut - Discography - 2002-2013/Albums (Re-Issue)/2002 - The End Of The Beginning (2011 Remastered) - (320 kbps)'
p283
tp284
a(S'/nas/Downloaded Torrents/Koan Discography/Koan - Argonautica (2012)'
p285
tp286
a(S'/nas/Downloaded Torrents/[Richie Hawtin]/Other/(1996) Concept 1 - Concept 1 [9601 - 9612]/[1996] Concept 1 - 96-03'
p287
tp288
a(S"/nas/Downloaded Torrents/Junior Boys (FLAC)/2011 - It's All True [DNO 293]"
p289
tp290
a(S'/nas/Downloaded Torrents/God Is An Astronaut - Discography - 2002-2013/Albums (Re-Issue)/2008 - God Is An Astronaut (2011 Remastered) - (320 kbps)'
p291
tp292
a(S'/nas/Downloaded Torrents/Sigur Ro\xcc\x81s/Sigur Ro\xcc\x81s [Studio Album Discography] [5 CD] [FLAC] [CodeTempest]'
p293
tp294
a(S'/nas/Downloaded Torrents/God Is An Astronaut - Discography - 2002-2013/Albums (CD Original)/2007 - Far From Refuge (Japanese Edition) - (320 kbps)'
p295
tp296
a(S"/nas/Downloaded Torrents/Screamin' Jay Hawkins/1994 - Somethin' Funny Goin' On"
p297
tp298
a(S'/nas/Downloaded Torrents/God Is An Astronaut - Discography - 2002-2013/Albums (Re-Issue)/2005 - All Is Violent, All Is Bright (2011 Remastered) - (320 kbps)'
p299
tp300
a(S'/nas/Downloaded Torrents/God Is An Astronaut - Discography - 2002-2013/Singles/2013 - Spiral Code (Single) - (320 kbps)'
p301
tp302
a(S'/nas/Downloaded Torrents/KING CRIMSON/[1981] Discipline'
p303
tp304
a(S"/nas/Downloaded Torrents/Screamin' Jay Hawkins/1991 - Black Music For White People"
p305
tp306
a(S'/nas/Downloaded Torrents/Tim Hecker/2011 - Dropped Pianos'
p307
tp308
a(S'/nas/Downloaded Torrents/[Richie Hawtin]/Richie Hawtin/Singles & EP/(2005) The Tunnel-Twin Cities [MINUS 33]'
p309
tp310
a(S'/nas/Downloaded Torrents/God Is An Astronaut - Discography - 2002-2013/Albums (CD Original)/2002 - The End Of The Beginning (2004 Release) - (320 kbps)'
p311
tp312
a(S'/nas/Downloaded Torrents/25_More_Rock_Albums_For_Your_Head_And_Mind_(@256-320)/Fat - Selftitled (East Coast Bluesrock US 1970) (@256)'
p313
tp314
a(S"/nas/Downloaded Torrents/Screamin' Jay Hawkins/1991 - Live And Crazy (Hotel Meridien Paris Etoile, June 16..17, 1988)"
p315
tp316
a(S'/nas/Downloaded Torrents/[Richie Hawtin]/Richie Hawtin/Compilations/(2007) VA - Nothing Much and Something More [MINUS 53 CD]/Troy Pierce - Something More (CD2)'
p317
tp318
a(S'/nas/Downloaded Torrents/Screaming Lord Sutch - Rock & Horror (FLAC)'
p319
tp320
a(S'/nas/Downloaded Torrents/Koan Discography/KOAN - Frontiers (2000)'
p321
tp322
a(S"/nas/Downloaded Torrents/Screamin' Jay Hawkins/1965 - The Night And Day Of Screamin' Jay Hawkins"
p323
tp324
a(S'/nas/Downloaded Torrents/God Is An Astronaut - Discography - 2002-2013/Albums (CD Original)/2013 - Origins - (320 kbps)'
p325
tp326
a(S'/nas/Downloaded Torrents/25_More_Rock_Albums_For_Your_Head_And_Mind_(@256-320)/Earthen Vessel - Earthen Vessel (Heavy Psychedelia US 1970) (@256)'
p327
tp328
a(S'/nas/Downloaded Torrents/12.Monkeys.S01E11.HDTV.x264-ASAP[ettv]/Sample'
p329
tp330
a(S'/nas/Downloaded Torrents/God Is An Astronaut - Discography - 2002-2013/Singles/2004 - Fragile (Single) - (320 kbps)'
p331
tp332
a(S'/nas/Downloaded Torrents/25_More_Rock_Albums_For_Your_Head_And_Mind_(@256-320)/Ellison - Selftitled (Superb Canadian Hardrock 1971) (@256)'
p333
tp334
a(S'/nas/Downloaded Torrents/[Richie Hawtin]/Other/(1996) Concept 1 - Concept 1 [9601 - 9612]/[1996] Concept 1 - 96-04'
p335
tp336
a(S"/nas/Downloaded Torrents/Screamin' Jay Hawkins/1983 - Real Live"
p337
tp338
a(S'/nas/Downloaded Torrents/God Is An Astronaut - Discography - 2002-2013/Singles/2005 - Fire Flies And Empty Skies (Single) - (320 kbps)'
p339
tp340
a(S'/nas/Downloaded Torrents/!Syd Barret/! FLAC/Syd Barrett - 1970 - Barret'
p341
tp342
a(S"/nas/Downloaded Torrents/Koan Discography/Koan - Circe's Touch Remixes Vol 1 (2011)"
p343
tp344
a(S'/nas/Downloaded Torrents/Koan Discography/Koan - Red Path (2013)'
p345
tp346
a(S'/nas/Downloaded Torrents/25_More_Rock_Albums_For_Your_Head_And_Mind_(@256-320)/Flood - The Rise of (Rare Psychedelic Rock from NY 1972) (@256)'
p347
tp348
a(S'/nas/Downloaded Torrents/25_More_Rock_Albums_For_Your_Head_And_Mind_(@256-320)/7th Temple - Under The Burning Sun (US Psych Rock 1978) (@256)'
p349
tp350
a(S'/nas/Downloaded Torrents/[Richie Hawtin]/Plastikman/Singles & EP/(2003) Disconnect [MINUS 17]'
p351
tp352
a(S'/nas/Downloaded Torrents/[Richie Hawtin]/Plastikman/Albums/(1994) Recycled Plastik [NMCD3019]'
p353
tp354
a(S'/nas/Downloaded Torrents/[Richie Hawtin]/Plastikman/Singles & EP/(2007) Nostalgik 3 [MINUS -3]'
p355
tp356
a(S'/nas/Downloaded Torrents/Tim Hecker/2011 - Ravedeath, 1972'
p357
tp358
a(S'/nas/Downloaded Torrents/God Is An Astronaut - Discography - 2002-2013/Singles/2007 - No Return (Single) - (320 kbps)'
p359
tp360
a(S'/nas/Downloaded Torrents/DJ Sprinkles - Midtown 120 Blues (2008) [FLAC] {2009 EU Version}'
p361
tp362
a(S'/nas/Downloaded Torrents/Miles Davis Kind Of Blue [FLAC+MP3](Big Papi) 1997 Remaster Jazz/MP3'
p363
tp364
a(S'/nas/Downloaded Torrents/Sigur Ro\xcc\x81s/Sigur Ro\xcc\x81s [Studio Album Discography] [5 CD] [FLAC] [CodeTempest]/[DISCS]/[2005]    Takk...'
p365
tp366
a(S'/nas/Downloaded Torrents/[Richie Hawtin]/Richie Hawtin/Compilations/(2002) DE9  Closer To The (R)Edit [MINUS 08 E]'
p367
tp368
a(S'/nas/Downloaded Torrents/Jon Hopkins/2013 - Jon Hopkins - Immunity'
p369
tp370
a(S"/nas/Downloaded Torrents/Screamin' Jay Hawkins/1969 - I Put A Spell On You [Epic, BN 26457]"
p371
tp372
a(S'/nas/Downloaded Torrents/KING CRIMSON/[2000] The ConstruKction Of Light'
p373
tp374
a(S'/nas/Downloaded Torrents/Koan Discography/Koan - Koan Box \xe2\x80\x94 @ Blue Tunes (2014)'
p375
tp376
a(S'/nas/Downloaded Torrents/Tim Hecker/2007 - Radio Amor'
p377
tp378
a(S'/nas/Downloaded Torrents/[Richie Hawtin]/Richie Hawtin/Pete Namlook & Richie Hawtin/(2000) From Within I [MINUS FW 1-4]'
p379
tp380
a(S'/nas/Downloaded Torrents/Koan Discography/Koan -  Big Blue Mix 2014'
p381
tp382
a(S"/nas/Downloaded Torrents/Screamin' Jay Hawkins/1979 - Screamin' The Blues"
p383
tp384
a(S'/nas/Downloaded Torrents/Junior Boys (FLAC)/2004 - Last Exit (2xCD) [DNO 38]/Disk 1'
p385
S'/nas/Downloaded Torrents/Junior Boys (FLAC)/2004 - Last Exit (2xCD) [DNO 38]/Disk 2'
p386
tp387
a(S"/nas/Downloaded Torrents/Screamin' Jay Hawkins/1993 - Stone Crazy"
p388
tp389
a(S'/nas/Downloaded Torrents/Tim Hecker/2012 - Instrumental Tourist  [with Daniel Lopatin]'
p390
tp391
a(S'/nas/Downloaded Torrents/KING CRIMSON/[1970][2] Lizard'
p392
tp393
a(S'/nas/Downloaded Torrents/KING CRIMSON/[1998] Space Groove (by ProjeKct TWO)/[CD1] Volume One - Space Groove'
p394
S'/nas/Downloaded Torrents/KING CRIMSON/[1998] Space Groove (by ProjeKct TWO)/[CD2] Volume Two - Vector Patrol'
p395
tp396
a(S'/nas/Downloaded Torrents/[Richie Hawtin]/Other/(1996) Concept 1 - Concept 1 [9601 - 9612]/[1996] Concept 1 - 96-05'
p397
tp398
a(S'/nas/Downloaded Torrents/1997 - Homogenic'
p399
tp400
a(S'/nas/Downloaded Torrents/KING CRIMSON/[2003] The Power To Believe'
p401
tp402
a(S"/nas/Downloaded Torrents/Screamin' Jay Hawkins/1969 - What That Is!"
p403
tp404
a(S'/nas/Downloaded Torrents/The Sonics - 1966 - Boom (us garage rock,proto punk - 320k)'
p405
tp406
a(S'/nas/Downloaded Torrents/Tim Hecker/2004 - Mirages'
p407
tp408
a(S'/nas/Downloaded Torrents/Tim Hecker/2008 - Fantasma Parastasie [with Aidan Baker]'
p409
tp410
a(S'/nas/Downloaded Torrents/[Richie Hawtin]/Richie Hawtin/Singles & EP/(2003) Hard trax vol 3 [PLUS8080]'
p411
tp412
a(S'/nas/Downloaded Torrents/[Richie Hawtin]/Richie Hawtin/Compilations/(2006) VA - 2 Kontakt RTW [KONTAKTRTW]'
p413
tp414
a(S'/nas/Downloaded Torrents/[Richie Hawtin]/Other/(1996) Concept 1 - Concept 1 [9601 - 9612]/[1996] Concept 1 - 96-07'
p415
tp416
a(S'/nas/Downloaded Torrents/God Is An Astronaut - Discography - 2002-2013/Singles/2004 - Coda (Single) - (320 kbps)'
p417
tp418
a(S'/nas/Downloaded Torrents/25_More_Rock_Albums_For_Your_Head_And_Mind_(@256-320)/Cold Sun - Dark Shadows (Superb Psychedelic Rock US 1970) (@256)'
p419
tp420
a(S'/nas/Downloaded Torrents/[Richie Hawtin]/Richie Hawtin/Compilations/(2006) VA - DE9 Combined Mixed by Richie Hawtin (Includes Japan - Only Mix) [MINUSXECD-1046 1047]'
p421
tp422
a(S'/nas/Downloaded Torrents/Derrick May - (1998) Innovator [TMT-2 CD]'
p423
S'/nas/Downloaded Torrents/Derrick May - (1998) Innovator [TMT-2 CD]/CD1'
p424
S'/nas/Downloaded Torrents/Derrick May - (1998) Innovator [TMT-2 CD]/CD2'
p425
tp426
a(S'/nas/Downloaded Torrents/Koan Discography/Daniel Roeth - bamboo grove EP (2006)'
p427
tp428
a(S'/nas/Downloaded Torrents/25_More_Rock_Albums_For_Your_Head_And_Mind_(@256-320)/Beauregard Ajax - Deep Priscilla (Great Psychedelia US 1967-68) (@256)'
p429
tp430
a(S'/nas/Downloaded Torrents/[Richie Hawtin]/Richie Hawtin/Compilations/(2006) DE9  Transitions [NoMu 150 CD]'
p431
tp432
a(S'/nas/Downloaded Torrents/[Richie Hawtin]/F.U.S.E/Singles & EP/(1991) Substance Abuse [PLUS8013]'
p433
tp434
a(S'/nas/Downloaded Torrents/Carl Craig - Sessions (2008) [FLAC]'
p435
S'/nas/Downloaded Torrents/Carl Craig - Sessions (2008) [FLAC]/CD1'
p436
S'/nas/Downloaded Torrents/Carl Craig - Sessions (2008) [FLAC]/CD2'
p437
tp438
a(S'/nas/Downloaded Torrents/Kraftwerk Kover Kollection vol.1-7/music'
p439
tp440
a(S'/nas/Downloaded Torrents/25_More_Rock_Albums_For_Your_Head_And_Mind_(@256-320)/Bandolero - Life Is Love, Love Is All (Puerto Rico Heavy Psych. 1970) (@256)'
p441
tp442
a(S'/nas/Downloaded Torrents/KING CRIMSON/[1969] In The Court Of The Crimson King'
p443
tp444
a(S'/nas/Downloaded Torrents/25_More_Rock_Albums_For_Your_Head_And_Mind_(@256-320)/Gordon Jackson - Thinking Back (Rare Acid Folkrock UK 1969) (@256)'
p445
tp446
a(S'/nas/Downloaded Torrents/Junior Boys (FLAC)/2009 - Begone Dull Care [DNO 215]'
p447
tp448
a(S'/nas/Downloaded Torrents/[Richie Hawtin]/Richie Hawtin/Pete Namlook & Richie Hawtin/(2000) From Within III [MINUS FW 3-4]'
p449
tp450
a(S'/nas/Downloaded Torrents/Foreign Beggars/01. Albums/2006 - Stray Point Agenda'
p451
tp452
a(S'/nas/Downloaded Torrents/God Is An Astronaut - Discography - 2002-2013/Singles/2003 - The End Of The Beginning (Single) - (320 kbps)'
p453
tp454
a(S'/nas/Downloaded Torrents/Koan Discography/koan - matariki (2009)'
p455
tp456
a(S'/nas/Downloaded Torrents/25_More_Rock_Albums_For_Your_Head_And_Mind_(@256-320)/Chick Shannon & The Last Exit Band - Tears On The Console (1975) (@256)'
p457
tp458
a(S'/nas/Downloaded Torrents/[Richie Hawtin]/Richie Hawtin/Singles & EP/(2002) Lowblow [MINUS 09]'
p459
tp460
a(S'/nas/Downloaded Torrents/KING CRIMSON/[1995] THRAK'
p461
tp462
a(S"/nas/Downloaded Torrents/KING CRIMSON/[1973] Larks' Tongues In Aspic"
p463
tp464
a(S'/nas/Downloaded Torrents/25_More_Rock_Albums_For_Your_Head_And_Mind_(@256-320)/High Treason - High Treason (Great Psychedelic Rock US 1969) (@256)'
p465
tp466
a(S'/nas/Downloaded Torrents/[Richie Hawtin]/Richie Hawtin/Compilations/(2000) Selections 1990 - 2000 [HARD008CD]'
p467
tp468
a(S'/nas/Downloaded Torrents/Tim Hecker/2006 - Harmony in Ultraviolet'
p469
tp470
a(S'/nas/Downloaded Torrents/Tim Hecker/2009 - An Imaginary Country'
p471
tp472
a(S'/nas/Downloaded Torrents/THE SONICS - !!!Here are The Sonics!!!'
p473
tp474
a(S'/nas/Downloaded Torrents/Tim Hecker/2007 - Norberg'
p475
tp476
a(S'/nas/Downloaded Torrents/[Richie Hawtin]/Other/(1996) Concept 1 - Concept 1 [9601 - 9612]/[1996] Concept 1 - 96-06'
p477
tp478
a(S'/nas/Downloaded Torrents/God Is An Astronaut - Discography - 2002-2013/EPs/2006 - A Moment Of Stillness EP - (320 kbps)'
p479
tp480
a(S'/nas/Downloaded Torrents/Tim Hecker/2001 - Haunt Me, Haunt Me Do It Again'
p481
tp482
a(S'/nas/Downloaded Torrents/[Richie Hawtin]/Richie Hawtin/Compilations/(2008) VA - Sounds from Can Elles [MINUS 71]'
p483
tp484
a(S'/nas/Downloaded Torrents/KING CRIMSON/[1974][1] Starless And Bible Black'
p485
tp486
a(S'/nas/Downloaded Torrents/KING CRIMSON/[1994][EP] VROOOM'
p487
tp488
a(S'/nas/Downloaded Torrents/Jon Hopkins/2001 - Jon Hopkins - Opalescent'
p489
tp490
a(S'/nas/Downloaded Torrents/25_More_Rock_Albums_For_Your_Head_And_Mind_(@256-320)/George Brigman - Jungle Rot (Stooges Like Fuzz Rock US 1975 & Bonus) (@256)'
p491
tp492
a(S'/nas/Downloaded Torrents/God Is An Astronaut - Discography - 2002-2013/EPs/2006 - A Moment Of Stillness EP (2011 Remastered) - (320 kbps)'
p493
tp494
a(S'/nas/Downloaded Torrents/KING CRIMSON/[2002][EP] Happy With What You Have To Be Happy With'
p495
tp496
a(S'/nas/Downloaded Torrents/KING CRIMSON/[1982] Beat'
p497
tp498
a(S"/nas/Downloaded Torrents/Koan Discography/Koan - Ariadne's Thread (2013)"
p499
tp500
a(S'/nas/Downloaded Torrents/Foreign Beggars/01. Albums/2008 - Asylum Agenda'
p501
tp502
a(S'/nas/Downloaded Torrents/25_More_Rock_Albums_For_Your_Head_And_Mind_(@256-320)/George Brigman - Jungle Rot (Stooges Like Fuzz Rock US 1975 & Bonus) (@256)/George Brigman & Split - Unreleased Fuzz 1977 (@320) (Bootleg)'
p503
tp504
a(S'/nas/Downloaded Torrents/25_More_Rock_Albums_For_Your_Head_And_Mind_(@256-320)/Bang - Bang (1st Album Outstanding Hardrock US 1971) (@320)'
p505
tp506
a(S'/nas/Downloaded Torrents/Koan Discography/Coastline EP (2007)'
p507
tp508
a(S"/nas/Downloaded Torrents/Screamin' Jay Hawkins/1999 - Live at the Olympia, Paris CD1"
p509
S"/nas/Downloaded Torrents/Screamin' Jay Hawkins/1999 - Live at the Olympia, Paris CD2"
p510
tp511
a(S'/nas/Downloaded Torrents/[Richie Hawtin]/F.U.S.E/Singles & EP/(1990) Approach & Identify [PLUS8004]'
p512
tp513
a(S'/nas/Downloaded Torrents/25_More_Rock_Albums_For_Your_Head_And_Mind_(@256-320)/Bead Game - Welcome (Great Psychedelic Rock US 1970) (@256)'
p514
tp515
a(S'/nas/Downloaded Torrents/Junior Boys (FLAC)/2006 - So This Is Goodbye [DNO 114]'
p516
tp517
a(S'/nas/Downloaded Torrents/25_More_Rock_Albums_For_Your_Head_And_Mind_(@256-320)/Bob Smith - The Visit (Superb Psychedelia US 1970) (@256)'
p518
tp519
a(S'/nas/Downloaded Torrents/Sigur Ro\xcc\x81s/Sigur Ro\xcc\x81s [Studio Album Discography] [5 CD] [FLAC] [CodeTempest]/[DISCS]/[2002]    ( )'
p520
tp521
a(S'/nas/Downloaded Torrents/25_More_Rock_Albums_For_Your_Head_And_Mind_(@256-320)/Buzzy Linhart - Buzzy (Good UK-US Acid-Influenced Folkrock 1968) (@256)'
p522
tp523
a(S'/nas/Downloaded Torrents/[Richie Hawtin]/Richie Hawtin/Compilations/(1996) Mixmag Live! - Richie Hawtin [MMLCD 020]'
p524
tp525
a(S"/nas/Downloaded Torrents/Screamin' Jay Hawkins/1982 - Frenzy"
p526
tp527
a(S'/nas/Downloaded Torrents/Tim Hecker/2004 - Mort Aux Vaches'
p528
tp529
a(S'/nas/Downloaded Torrents/Foreign Beggars/01. Albums/2003 - Asylum Speakers'
p530
tp531
a(S'/nas/Downloaded Torrents/[Richie Hawtin]/Plastikman/Singles & EP/(1994) Plastique [CDNoMu34]'
p532
tp533
a(S'/nas/Downloaded Torrents/KING CRIMSON/[1974][2] Red'
p534
tp535
a(S'/nas/Downloaded Torrents/Foreign Beggars/01. Albums/2006 - Bukkake Ski Trip'
p536
tp537
a(S'/nas/Downloaded Torrents/[Richie Hawtin]/Plastikman/Singles & EP/(1999) PK [MINUS 02]'
p538
tp539
a(S'/nas/Downloaded Torrents/[Richie Hawtin]/F.U.S.E/Albums'
p540
S'/nas/Downloaded Torrents/[Richie Hawtin]/F.U.S.E/Albums/(1993) Dimension Intrusion [WARP CD 12]'
p541
tp542
a(S'/nas/Downloaded Torrents/25_More_Rock_Albums_For_Your_Head_And_Mind_(@256-320)/Boot - Boot (US Hardrock 1972) (@256)'
p543
tp544
a(S"/nas/Downloaded Torrents/Screamin' Jay Hawkins/1972 - Portrait Of A Man And His Woman"
p545
tp546
a(S'/nas/Downloaded Torrents/Complete Chicago House Classics'
p547
tp548
a(S'/nas/Downloaded Torrents/25_More_Rock_Albums_For_Your_Head_And_Mind_(@256-320)/Bold - Lullaby Opus Four (Late 60s Folk Rock US 1969) (@256)'
p549
tp550
a(S'/nas/Downloaded Torrents/KING CRIMSON/[1970][1] In The Wake Of Poseidon'
p551
tp552
a(S'/nas/Downloaded Torrents/Foreign Beggars/01. Albums/2009 - United Colours of Beggattron'
p553
tp554
a(S'/nas/Downloaded Torrents/[Richie Hawtin]/Plastikman/Singles & EP/(2005) Nostalgik.2 [MINUS -2]'
p555
tp556
a(S'/nas/Downloaded Torrents/God Is An Astronaut - Discography - 2002-2013/Albums (CD Original)/2008 - God Is An Astronaut - (320 kbps)'
p557
tp558
a(S'/nas/Downloaded Torrents/[Richie Hawtin]/Other/(1996) Concept 1 - Concept 1 [9601 - 9612]/[1996] Concept 1 - 96-08'
p559
tp560
a(S'/nas/Downloaded Torrents/[Richie Hawtin]/Plastikman/Singles & EP/(2004) Nostalgik.1 [MINUS -1]'
p561
tp562
a(S'/nas/Downloaded Torrents/!Syd Barret/! FLAC/Syd Barrett - 1970 - The Peel Sessions'
p563
tp564
atp565
Rp566
s.