(dp0
S'tagprogress'
p1
(dp2
sS'taghistory'
p3
c__builtin__
set
p4
((lp5
(S'/nas/Downloaded Torrents/[Richie Hawtin]/Richie Hawtin/Compilations/(2002) VA - The Sound Of The Third Season [CORMIX004]'
p6
tp7
a(S'/nas/Downloaded Torrents/[Richie Hawtin]/Plastikman/Singles & EP/(1997) Sickness [PLUS8058]'
p8
tp9
a(S'/nas/Downloaded Torrents/Miles Davis Kind Of Blue [FLAC+MP3](Big Papi) 1997 Remaster Jazz/FLAC'
p10
tp11
a(S'/nas/Downloaded Torrents/[Richie Hawtin]/Richie Hawtin/Singles & EP/(1997) 005 [PLUS8068]'
p12
tp13
a(S'/nas/Downloaded Torrents/KING CRIMSON/[2011] A Scarcity Of Miracles (A King Crimson ProjeKct)'
p14
tp15
a(S'/nas/Downloaded Torrents/God Is An Astronaut - Discography - 2002-2013/Albums (Re-Issue)/2007 - Far From Refuge (2011 Remastered) - (320 kbps)'
p16
tp17
a(S'/nas/Downloaded Torrents/Sigur Ro\xcc\x81s/Sigur Ro\xcc\x81s [Studio Album Discography] [5 CD] [FLAC] [CodeTempest]/[DISCS]/[1997]    Von'
p18
tp19
a(S'/nas/Downloaded Torrents/[Richie Hawtin]/Other/(1996) Concept 1 - Concept 1 [9601 - 9612]/[1996] Concept 1 - 96-12'
p20
tp21
a(S'/nas/Downloaded Torrents/Jon Hopkins/2004 - Jon Hopkins - Contact Note'
p22
tp23
a(S'/nas/Downloaded Torrents/God Is An Astronaut - Discography - 2002-2013/Albums (CD Original)/2005 - All Is Violent, All Is Bright - (320 kbps)'
p24
tp25
a(S'/nas/Downloaded Torrents/Jon Hopkins/2009 - Jon Hopkins - Insides'
p26
tp27
a(S'/nas/Downloaded Torrents/[Richie Hawtin]/Plastikman/Singles & EP/(2004) I Dont Know [MINUS 19]'
p28
tp29
a(S'/nas/Downloaded Torrents/[Richie Hawtin]/Other/(1996) Concept 1 - Concept 1 [9601 - 9612]/[1996] Concept 1 - 96-09'
p30
tp31
a(S'/nas/Downloaded Torrents/Jon Hopkins/2011 - King Creosote & Jon Hopkins - Diamond Mine'
p32
tp33
a(S'/nas/Downloaded Torrents/[Richie Hawtin]/Plastikman/Singles & EP/(2002) Spastik [PLUS8078]'
p34
tp35
a(S'/nas/Downloaded Torrents/[Richie Hawtin]/F.U.S.E/Singles & EP/(1995) Loop [PLUS8054]'
p36
tp37
a(S'/nas/Downloaded Torrents/[Richie Hawtin]/Richie Hawtin/Singles & EP/(1999) Orange EP [none]'
p38
tp39
a(S'/nas/Downloaded Torrents/[Richie Hawtin]/Other/(2007) Concept 1 - Concept 1 - 96CDVR [96CDVR]/96VR'
p40
tp41
a(S'/nas/Downloaded Torrents/God Is An Astronaut - Discography - 2002-2013/Albums (CD Original)/2010 - Age Of The Fifth Sun - (320 kbps)'
p42
tp43
a(S'/nas/Downloaded Torrents/[Richie Hawtin]/Plastikman/Singles & EP/(1998) Hypokondriak-Afrika [MINUS 03]'
p44
tp45
a(S'/nas/Downloaded Torrents/[Richie Hawtin]/Other/(2007) Concept 1 - Concept 1 - 96CDVR [96CDVR]/CD96'
p46
tp47
a(S'/nas/Downloaded Torrents/[Richie Hawtin]/Richie Hawtin/Compilations/(2007) VA - Nothing Much and Something More [MINUS 53 CD]/Richie Hawtin - Nothing Much (CD1)'
p48
tp49
a(S'/nas/Downloaded Torrents/Sigur Ro\xcc\x81s/Sigur Ro\xcc\x81s [Studio Album Discography] [5 CD] [FLAC] [CodeTempest]/[DISCS]/[2008]    Me\xc3\xb0 su\xc3\xb0 i\xcc\x81 eyrum vi\xc3\xb0 spilum endalaust'
p50
tp51
a(S'/nas/Downloaded Torrents/God Is An Astronaut - Discography - 2002-2013/EPs/2006 - A Moment Of Stillness EP (2011 Remastered) - (320 kbps)'
p52
tp53
a(S'/nas/Downloaded Torrents/Black Dog Productions - Bytes (1993) FLAC'
p54
tp55
a(S'/nas/Downloaded Torrents/[Richie Hawtin]/Other/(1996) Concept 1 - Concept 1 [9601 - 9612]/[1996] Concept 1 - 96-01'
p56
tp57
a(S'/nas/Downloaded Torrents/[Richie Hawtin]/Richie Hawtin/Compilations/(2001) DE9 Closer to the Edit [MINUS 08 CD]'
p58
tp59
a(S'/nas/Downloaded Torrents/Jon Hopkins/2010 - Jon Hopkins - Monsters'
p60
tp61
a(S'/nas/Downloaded Torrents/[Richie Hawtin]/F.U.S.E/Singles & EP/(2001) Hypnofreak  NT [PLUS8076]'
p62
tp63
a(S'/nas/Downloaded Torrents/[Richie Hawtin]/Other/(1996) Concept 1 - Concept 1 [9601 - 9612]/[1996] Concept 1 - 96-11'
p64
tp65
a(S'/nas/Downloaded Torrents/[Richie Hawtin]/Plastikman/Mixes/(2010) Plastikman Exclusive Mix [URB Magazine]'
p66
tp67
a(S'/nas/Downloaded Torrents/[Richie Hawtin]/F.U.S.E/Singles & EP/(1999) Epok CD [MINUS 5 CD]'
p68
tp69
a(S'/nas/Downloaded Torrents/KING CRIMSON/[1998] Space Groove (by ProjeKct TWO)/[CD1] Volume One - Space Groove'
p70
S'/nas/Downloaded Torrents/KING CRIMSON/[1998] Space Groove (by ProjeKct TWO)/[CD2] Volume Two - Vector Patrol'
p71
tp72
a(S'/nas/Downloaded Torrents/[Richie Hawtin]/F.U.S.E/Singles & EP/(1993) Train-Tracs [TVT 8708-2]'
p73
tp74
a(S'/nas/Downloaded Torrents/[Richie Hawtin]/Plastikman/Singles & EP/(1996) Plastikprodukts Member CD.1996 [PPCD01]'
p75
tp76
a(S'/nas/Downloaded Torrents/Sigur Ro\xcc\x81s/Sigur Ro\xcc\x81s [Studio Album Discography] [5 CD] [FLAC] [CodeTempest]/[DISCS]/[1999]    A\xcc\x81g\xc3\xa6tis byrjun'
p77
tp78
a(S'/nas/Downloaded Torrents/KING CRIMSON/[2000] Heaven & Earth (by ProjeKct X)'
p79
tp80
a(S'/nas/Downloaded Torrents/[Richie Hawtin]/Richie Hawtin/Singles & EP/(1999) Minus Yellow [MINUS Yellow]'
p81
tp82
a(S'/nas/Downloaded Torrents/[Richie Hawtin]/Plastikman/Singles & EP/(2002) Kontakt [MINUSK1]'
p83
tp84
a(S'/nas/Downloaded Torrents/[Richie Hawtin]/Richie Hawtin/Compilations/(1994) VA - Richie Hawtin & John Acquaviva - X-Mix-3 - Enter Digital Reality! [!K7032CD]'
p85
tp86
a(S'/nas/Downloaded Torrents/KING CRIMSON/[1971] Islands'
p87
tp88
a(S'/nas/Downloaded Torrents/Jon Hopkins/2013 - Jon Hopkins - How I Live Now'
p89
tp90
a(S'/nas/Downloaded Torrents/[Richie Hawtin]/Richie Hawtin/Pete Namlook & Richie Hawtin/(2000) From Within II [MINUS FW 2-4]'
p91
tp92
a(S'/nas/Downloaded Torrents/KING CRIMSON/[2002][EP] Happy With What You Have To Be Happy With'
p93
tp94
a(S'/nas/Downloaded Torrents/[Richie Hawtin]/Richie Hawtin/Compilations/(1999) Decks, EFX & 909 [MINUS 04 CD]'
p95
tp96
a(S'/nas/Downloaded Torrents/God Is An Astronaut - Discography - 2002-2013/Singles/2009 - Shining Through (Single)'
p97
tp98
a(S'/nas/Downloaded Torrents/[Richie Hawtin]/Richie Hawtin/Mixes/(2008) RA.100 [RA.100]'
p99
tp100
a(S'/nas/Downloaded Torrents/[Richie Hawtin]/Other/(1996) Concept 1 - Concept 1 [9601 - 9612]/[1996] Concept 1 - 96-02'
p101
tp102
a(S'/nas/Downloaded Torrents/[Richie Hawtin]/Plastikman/Singles & EP/(1993) Krakpot [12 NoMu 25]'
p103
tp104
a(S'/nas/Downloaded Torrents/[Richie Hawtin]/Plastikman/Albums/(1994) Musik [PLUS8043]'
p105
tp106
a(S'/nas/Downloaded Torrents/[Richie Hawtin]/Other/(1996) Concept 1 - Concept 1 [9601 - 9612]/[1996] Concept 1 - 96-10'
p107
tp108
a(S'/nas/Downloaded Torrents/[Richie Hawtin]/Plastikman/Albums/(1998) Consumed [MINUS 01 CD]'
p109
tp110
a(S'/nas/Downloaded Torrents/Moderat - II (Deluxe) [2013]'
p111
tp112
a(S'/nas/Downloaded Torrents/Acoustica - Alarm Will Sound Performs Aphex Twin'
p113
tp114
a(S'/nas/Downloaded Torrents/God Is An Astronaut - Discography - 2002-2013/Singles/2010 - In The Distance Fading (Single) - (320 kbps)'
p115
tp116
a(S'/nas/Downloaded Torrents/Jon Hopkins/2010 - Brian Eno, Jon Hopkins & Leo Abrahams - Small Craft On A Milk Sea'
p117
tp118
a(S'/nas/Downloaded Torrents/[Richie Hawtin]/Richie Hawtin/Compilations/(2001) DE9  Closer To The Edit (Parts) [MINUS 08 LP]'
p119
tp120
a(S'/nas/Downloaded Torrents/[Richie Hawtin]/Plastikman/Albums/(1998) Artefakts (BC) [MINUS 03 CD]'
p121
tp122
a(S'/nas/Downloaded Torrents/God Is An Astronaut - Discography - 2002-2013/Singles/2003 - Point Pleasant (Single) - (320 kbps)'
p123
tp124
a(S'/nas/Downloaded Torrents/[Richie Hawtin]/Plastikman/Singles & EP/(2002) Spastik (remastered) [12nomu28]'
p125
tp126
a(S'/nas/Downloaded Torrents/[Richie Hawtin]/Plastikman/Albums/(2003) Closer [MINUS 18 CD]'
p127
tp128
a(S'/nas/Downloaded Torrents/God Is An Astronaut - Discography - 2002-2013/Singles/2006 - Beyond The Dying Light (Single) - (320 kbps)'
p129
tp130
a(S'/nas/Downloaded Torrents/[Richie Hawtin]/Richie Hawtin/Singles & EP/(1999) Minus Orange [M_NUS ORANGE]'
p131
tp132
a(S'/nas/Downloaded Torrents/[Richie Hawtin]/Richie Hawtin/Singles & EP/(1995) Call It What You Want! [PLUS8050]'
p133
tp134
a(S'/nas/Downloaded Torrents/[Richie Hawtin]/Plastikman/Albums/(1993) Sheet One [NoMu 22 CD]'
p135
tp136
a(S'/nas/Downloaded Torrents/God Is An Astronaut - Discography - 2002-2013/Singles/2003 - From Dust To The Beyond (Single) - (320 kbps)'
p137
tp138
a(S'/nas/Downloaded Torrents/God Is An Astronaut - Discography - 2002-2013/Albums (Re-Issue)/2010 - Age Of The Fifth Sun (2011 Remastered) - (320 kbps)'
p139
tp140
a(S'/nas/Downloaded Torrents/[Richie Hawtin]/Richie Hawtin/Compilations/(2006) DE9  Lite - Electronic Adventures [MIXMAG 05.06]'
p141
tp142
a(S'/nas/Downloaded Torrents/God Is An Astronaut - Discography - 2002-2013/Singles/2006 - Tempus Horizon (Single) - (320 kbps)'
p143
tp144
a(S'/nas/Downloaded Torrents/God Is An Astronaut - Discography - 2002-2013/Albums (Re-Issue)/2002 - The End Of The Beginning (2011 Remastered) - (320 kbps)'
p145
tp146
a(S'/nas/Downloaded Torrents/[Richie Hawtin]/Other/(1996) Concept 1 - Concept 1 [9601 - 9612]/[1996] Concept 1 - 96-03'
p147
tp148
a(S'/nas/Downloaded Torrents/God Is An Astronaut - Discography - 2002-2013/Albums (Re-Issue)/2008 - God Is An Astronaut (2011 Remastered) - (320 kbps)'
p149
tp150
a(S'/nas/Downloaded Torrents/Sigur Ro\xcc\x81s/Sigur Ro\xcc\x81s [Studio Album Discography] [5 CD] [FLAC] [CodeTempest]'
p151
tp152
a(S'/nas/Downloaded Torrents/[Richie Hawtin]/Richie Hawtin/Compilations/(2006) DE9  Transitions [NoMu 150 CD]'
p153
tp154
a(S'/nas/Downloaded Torrents/God Is An Astronaut - Discography - 2002-2013/Singles/2013 - Spiral Code (Single) - (320 kbps)'
p155
tp156
a(S'/nas/Downloaded Torrents/KING CRIMSON/[1981] Discipline'
p157
tp158
a(S'/nas/Downloaded Torrents/[Richie Hawtin]/Richie Hawtin/Singles & EP/(2005) The Tunnel-Twin Cities [MINUS 33]'
p159
tp160
a(S'/nas/Downloaded Torrents/God Is An Astronaut - Discography - 2002-2013/Albums (CD Original)/2002 - The End Of The Beginning (2004 Release) - (320 kbps)'
p161
tp162
a(S'/nas/Downloaded Torrents/[Richie Hawtin]/Richie Hawtin/Compilations/(2007) VA - Nothing Much and Something More [MINUS 53 CD]/Troy Pierce - Something More (CD2)'
p163
tp164
a(S'/nas/Downloaded Torrents/God Is An Astronaut - Discography - 2002-2013/Albums (CD Original)/2013 - Origins - (320 kbps)'
p165
tp166
a(S'/nas/Downloaded Torrents/[Richie Hawtin]/Other/(1996) Concept 1 - Concept 1 [9601 - 9612]/[1996] Concept 1 - 96-04'
p167
tp168
a(S'/nas/Downloaded Torrents/God Is An Astronaut - Discography - 2002-2013/Singles/2005 - Fire Flies And Empty Skies (Single) - (320 kbps)'
p169
tp170
a(S'/nas/Downloaded Torrents/[Richie Hawtin]/Plastikman/Singles & EP/(1999) PK [MINUS 02]'
p171
tp172
a(S'/nas/Downloaded Torrents/Jon Hopkins/2013 - Jon Hopkins - Immunity'
p173
tp174
a(S'/nas/Downloaded Torrents/[Richie Hawtin]/Plastikman/Singles & EP/(2003) Disconnect [MINUS 17]'
p175
tp176
a(S'/nas/Downloaded Torrents/[Richie Hawtin]/Plastikman/Singles & EP/(2007) Nostalgik 3 [MINUS -3]'
p177
tp178
a(S'/nas/Downloaded Torrents/[Richie Hawtin]/Richie Hawtin/Compilations/(1996) Mixmag Live! - Richie Hawtin [MMLCD 020]'
p179
tp180
a(S'/nas/Downloaded Torrents/DJ Sprinkles - Midtown 120 Blues (2008) [FLAC] {2009 EU Version}'
p181
tp182
a(S'/nas/Downloaded Torrents/Miles Davis Kind Of Blue [FLAC+MP3](Big Papi) 1997 Remaster Jazz/MP3'
p183
tp184
a(S'/nas/Downloaded Torrents/Sigur Ro\xcc\x81s/Sigur Ro\xcc\x81s [Studio Album Discography] [5 CD] [FLAC] [CodeTempest]/[DISCS]/[2005]    Takk...'
p185
tp186
a(S'/nas/Downloaded Torrents/[Richie Hawtin]/Richie Hawtin/Compilations/(2002) DE9  Closer To The (R)Edit [MINUS 08 E]'
p187
tp188
a(S'/nas/Downloaded Torrents/God Is An Astronaut - Discography - 2002-2013/Singles/2007 - No Return (Single) - (320 kbps)'
p189
tp190
a(S'/nas/Downloaded Torrents/KING CRIMSON/[2000] The ConstruKction Of Light'
p191
tp192
a(S'/nas/Downloaded Torrents/[Richie Hawtin]/Richie Hawtin/Pete Namlook & Richie Hawtin/(2000) From Within I [MINUS FW 1-4]'
p193
tp194
a(S'/nas/Downloaded Torrents/God Is An Astronaut - Discography - 2002-2013/Albums (Re-Issue)/2005 - All Is Violent, All Is Bright (2011 Remastered) - (320 kbps)'
p195
tp196
a(S'/nas/Downloaded Torrents/KING CRIMSON/[1970][2] Lizard'
p197
tp198
a(S'/nas/Downloaded Torrents/God Is An Astronaut - Discography - 2002-2013/Singles/2003 - The End Of The Beginning (Single) - (320 kbps)'
p199
tp200
a(S'/nas/Downloaded Torrents/[Richie Hawtin]/Other/(1996) Concept 1 - Concept 1 [9601 - 9612]/[1996] Concept 1 - 96-05'
p201
tp202
a(S'/nas/Downloaded Torrents/1997 - Homogenic'
p203
tp204
a(S'/nas/Downloaded Torrents/The Sonics - 1966 - Boom (us garage rock,proto punk - 320k)'
p205
tp206
a(S'/nas/Downloaded Torrents/[Richie Hawtin]/Richie Hawtin/Singles & EP/(2003) Hard trax vol 3 [PLUS8080]'
p207
tp208
a(S'/nas/Downloaded Torrents/[Richie Hawtin]/Richie Hawtin/Compilations/(2006) VA - 2 Kontakt RTW [KONTAKTRTW]'
p209
tp210
a(S'/nas/Downloaded Torrents/[Richie Hawtin]/F.U.S.E/Albums'
p211
S'/nas/Downloaded Torrents/[Richie Hawtin]/F.U.S.E/Albums/(1993) Dimension Intrusion [WARP CD 12]'
p212
tp213
a(S'/nas/Downloaded Torrents/God Is An Astronaut - Discography - 2002-2013/Singles/2004 - Coda (Single) - (320 kbps)'
p214
tp215
a(S'/nas/Downloaded Torrents/[Richie Hawtin]/Richie Hawtin/Compilations/(2006) VA - DE9 Combined Mixed by Richie Hawtin (Includes Japan - Only Mix) [MINUSXECD-1046 1047]'
p216
tp217
a(S'/nas/Downloaded Torrents/Derrick May - (1998) Innovator [TMT-2 CD]'
p218
S'/nas/Downloaded Torrents/Derrick May - (1998) Innovator [TMT-2 CD]/CD1'
p219
S'/nas/Downloaded Torrents/Derrick May - (1998) Innovator [TMT-2 CD]/CD2'
p220
tp221
a(S'/nas/Downloaded Torrents/God Is An Astronaut - Discography - 2002-2013/Albums (CD Original)/2007 - Far From Refuge (Japanese Edition) - (320 kbps)'
p222
tp223
a(S'/nas/Downloaded Torrents/[Richie Hawtin]/F.U.S.E/Singles & EP/(1991) Substance Abuse [PLUS8013]'
p224
tp225
a(S'/nas/Downloaded Torrents/Kraftwerk Kover Kollection vol.1-7/music'
p226
tp227
a(S'/nas/Downloaded Torrents/KING CRIMSON/[1969] In The Court Of The Crimson King'
p228
tp229
a(S'/nas/Downloaded Torrents/[Richie Hawtin]/Plastikman/Albums/(1994) Recycled Plastik [NMCD3019]'
p230
tp231
a(S'/nas/Downloaded Torrents/[Richie Hawtin]/Richie Hawtin/Pete Namlook & Richie Hawtin/(2000) From Within III [MINUS FW 3-4]'
p232
tp233
a(S"/nas/Downloaded Torrents/[Richie Hawtin]/Other/(2004) Forcept 1 - FR01 (Akufen's Concept 1 Reinterpretations Volume 1) [FR01]"
p234
tp235
a(S'/nas/Downloaded Torrents/[Richie Hawtin]/Richie Hawtin/Singles & EP/(2002) Lowblow [MINUS 09]'
p236
tp237
a(S'/nas/Downloaded Torrents/KING CRIMSON/[1995] THRAK'
p238
tp239
a(S"/nas/Downloaded Torrents/KING CRIMSON/[1973] Larks' Tongues In Aspic"
p240
tp241
a(S'/nas/Downloaded Torrents/[Richie Hawtin]/Richie Hawtin/Compilations/(2000) Selections 1990 - 2000 [HARD008CD]'
p242
tp243
a(S'/nas/Downloaded Torrents/THE SONICS - !!!Here are The Sonics!!!'
p244
tp245
a(S'/nas/Downloaded Torrents/[Richie Hawtin]/Plastikman/Singles & EP/(1994) Plastique [CDNoMu34]'
p246
tp247
a(S'/nas/Downloaded Torrents/God Is An Astronaut - Discography - 2002-2013/EPs/2006 - A Moment Of Stillness EP - (320 kbps)'
p248
tp249
a(S'/nas/Downloaded Torrents/[Richie Hawtin]/Richie Hawtin/Compilations/(2008) VA - Sounds from Can Elles [MINUS 71]'
p250
tp251
a(S'/nas/Downloaded Torrents/KING CRIMSON/[1994][EP] VROOOM'
p252
tp253
a(S'/nas/Downloaded Torrents/Jon Hopkins/2001 - Jon Hopkins - Opalescent'
p254
tp255
a(S'/nas/Downloaded Torrents/[Richie Hawtin]/F.U.S.E/Singles & EP/(1992) The Unreleased Experiments [PLUS8019]'
p256
tp257
a(S'/nas/Downloaded Torrents/KING CRIMSON/[1974][1] Starless And Bible Black'
p258
tp259
a(S'/nas/Downloaded Torrents/KING CRIMSON/[1982] Beat'
p260
tp261
a(S'/nas/Downloaded Torrents/[Richie Hawtin]/F.U.S.E/Singles & EP/(1990) Approach & Identify [PLUS8004]'
p262
tp263
a(S'/nas/Downloaded Torrents/Sigur Ro\xcc\x81s/Sigur Ro\xcc\x81s [Studio Album Discography] [5 CD] [FLAC] [CodeTempest]/[DISCS]/[2002]    ( )'
p264
tp265
a(S'/nas/Downloaded Torrents/God Is An Astronaut - Discography - 2002-2013/Singles/2004 - Fragile (Single) - (320 kbps)'
p266
tp267
a(S'/nas/Downloaded Torrents/[Richie Hawtin]/Other/(1996) Concept 1 - Concept 1 [9601 - 9612]/[1996] Concept 1 - 96-06'
p268
tp269
a(S'/nas/Downloaded Torrents/KING CRIMSON/[1974][2] Red'
p270
tp271
a(S'/nas/Downloaded Torrents/KING CRIMSON/[1984] Three Of A Perfect Pair'
p272
tp273
a(S'/nas/Downloaded Torrents/[Richie Hawtin]/Other/(1996) Concept 1 - Concept 1 [9601 - 9612]/[1996] Concept 1 - 96-07'
p274
tp275
a(S'/nas/Downloaded Torrents/KING CRIMSON/[2003] The Power To Believe'
p276
tp277
a(S'/nas/Downloaded Torrents/KING CRIMSON/[1970][1] In The Wake Of Poseidon'
p278
tp279
a(S'/nas/Downloaded Torrents/[Richie Hawtin]/Plastikman/Singles & EP/(2005) Nostalgik.2 [MINUS -2]'
p280
tp281
a(S'/nas/Downloaded Torrents/God Is An Astronaut - Discography - 2002-2013/Albums (CD Original)/2008 - God Is An Astronaut - (320 kbps)'
p282
tp283
a(S'/nas/Downloaded Torrents/[Richie Hawtin]/Other/(1996) Concept 1 - Concept 1 [9601 - 9612]/[1996] Concept 1 - 96-08'
p284
tp285
a(S'/nas/Downloaded Torrents/[Richie Hawtin]/Plastikman/Singles & EP/(2004) Nostalgik.1 [MINUS -1]'
p286
tp287
atp288
Rp289
s.