(dp0
S'tagprogress'
p1
(dp2
sS'taghistory'
p3
c__builtin__
set
p4
((lp5
(S'/nas/Downloaded Torrents/KING CRIMSON/[1969] In The Court Of The Crimson King'
p6
tp7
a(S'/nas/Downloaded Torrents/KING CRIMSON/[1971] Islands'
p8
tp9
a(S'/nas/Downloaded Torrents/Jon Hopkins/2013 - Jon Hopkins - How I Live Now'
p10
tp11
a(S'/nas/Downloaded Torrents/KING CRIMSON/[2011] A Scarcity Of Miracles (A King Crimson ProjeKct)'
p12
tp13
a(S'/nas/Downloaded Torrents/KING CRIMSON/[1995] THRAK'
p14
tp15
a(S"/nas/Downloaded Torrents/KING CRIMSON/[1973] Larks' Tongues In Aspic"
p16
tp17
a(S'/nas/Downloaded Torrents/KING CRIMSON/[1994][EP] VROOOM'
p18
tp19
a(S'/nas/Downloaded Torrents/Sigur Ro\xcc\x81s/Sigur Ro\xcc\x81s [Studio Album Discography] [5 CD] [FLAC] [CodeTempest]/[DISCS]/[1997]    Von'
p20
tp21
a(S'/nas/Downloaded Torrents/Jon Hopkins/2004 - Jon Hopkins - Contact Note'
p22
tp23
a(S'/nas/Downloaded Torrents/Moderat - II (Deluxe) [2013]'
p24
tp25
a(S'/nas/Downloaded Torrents/Jon Hopkins/2009 - Jon Hopkins - Insides'
p26
tp27
a(S'/nas/Downloaded Torrents/Jon Hopkins/2013 - Jon Hopkins - Immunity'
p28
tp29
a(S'/nas/Downloaded Torrents/Jon Hopkins/2001 - Jon Hopkins - Opalescent'
p30
tp31
a(S'/nas/Downloaded Torrents/KING CRIMSON/[2002][EP] Happy With What You Have To Be Happy With'
p32
tp33
a(S'/nas/Downloaded Torrents/Sigur Ro\xcc\x81s/Sigur Ro\xcc\x81s [Studio Album Discography] [5 CD] [FLAC] [CodeTempest]/[DISCS]/[2005]    Takk...'
p34
tp35
a(S'/nas/Downloaded Torrents/KING CRIMSON/[1982] Beat'
p36
tp37
a(S'/nas/Downloaded Torrents/Jon Hopkins/2011 - King Creosote & Jon Hopkins - Diamond Mine'
p38
tp39
a(S'/nas/Downloaded Torrents/KING CRIMSON/[1974][2] Red'
p40
tp41
a(S'/nas/Downloaded Torrents/KING CRIMSON/[2000] The ConstruKction Of Light'
p42
tp43
a(S'/nas/Downloaded Torrents/Sigur Ro\xcc\x81s/Sigur Ro\xcc\x81s [Studio Album Discography] [5 CD] [FLAC] [CodeTempest]'
p44
tp45
a(S'/nas/Downloaded Torrents/Sigur Ro\xcc\x81s/Sigur Ro\xcc\x81s [Studio Album Discography] [5 CD] [FLAC] [CodeTempest]/[DISCS]/[2002]    ( )'
p46
tp47
a(S'/nas/Downloaded Torrents/Sigur Ro\xcc\x81s/Sigur Ro\xcc\x81s [Studio Album Discography] [5 CD] [FLAC] [CodeTempest]/[DISCS]/[2008]    Me\xc3\xb0 su\xc3\xb0 i\xcc\x81 eyrum vi\xc3\xb0 spilum endalaust'
p48
tp49
a(S'/nas/Downloaded Torrents/Jon Hopkins/2010 - Brian Eno, Jon Hopkins & Leo Abrahams - Small Craft On A Milk Sea'
p50
tp51
a(S'/nas/Downloaded Torrents/Jon Hopkins/2010 - Jon Hopkins - Monsters'
p52
tp53
a(S'/nas/Downloaded Torrents/KING CRIMSON/[1970][2] Lizard'
p54
tp55
a(S'/nas/Downloaded Torrents/KING CRIMSON/[1998] Space Groove (by ProjeKct TWO)/[CD1] Volume One - Space Groove'
p56
S'/nas/Downloaded Torrents/KING CRIMSON/[1998] Space Groove (by ProjeKct TWO)/[CD2] Volume Two - Vector Patrol'
p57
tp58
a(S'/nas/Downloaded Torrents/KING CRIMSON/[1984] Three Of A Perfect Pair'
p59
tp60
a(S'/nas/Downloaded Torrents/KING CRIMSON/[1974][1] Starless And Bible Black'
p61
tp62
a(S'/nas/Downloaded Torrents/KING CRIMSON/[1981] Discipline'
p63
tp64
a(S'/nas/Downloaded Torrents/KING CRIMSON/[2003] The Power To Believe'
p65
tp66
a(S'/nas/Downloaded Torrents/KING CRIMSON/[1970][1] In The Wake Of Poseidon'
p67
tp68
a(S'/nas/Downloaded Torrents/Sigur Ro\xcc\x81s/Sigur Ro\xcc\x81s [Studio Album Discography] [5 CD] [FLAC] [CodeTempest]/[DISCS]/[1999]    A\xcc\x81g\xc3\xa6tis byrjun'
p69
tp70
a(S'/nas/Downloaded Torrents/KING CRIMSON/[2000] Heaven & Earth (by ProjeKct X)'
p71
tp72
atp73
Rp74
s.