(dp0
S'tagprogress'
p1
(dp2
S'/nas/Downloaded Torrents'
p3
(lp4
S'/nas/Downloaded Torrents/!Syd Barret/! FLAC/Syd Barrett - 1969 - The Madcap Laughs'
p5
aS'/nas/Downloaded Torrents/!Syd Barret/! FLAC/Syd Barrett - 1970 - Barret'
p6
aS'/nas/Downloaded Torrents/!Syd Barret/! FLAC/Syd Barrett - 1970 - The Peel Sessions'
p7
aS'/nas/Downloaded Torrents/!Syd Barret/! FLAC/Syd Barrett - 1988 - Opel - 1969-70'
p8
aS'/nas/Downloaded Torrents/12.Monkeys.S01E10.HDTV.x264-ASAP[ettv]/Sample'
p9
aS'/nas/Downloaded Torrents/12.Monkeys.S01E11.HDTV.x264-ASAP[ettv]/Sample'
p10
aS'/nas/Downloaded Torrents/25_More_Rock_Albums_For_Your_Head_And_Mind_(@256-320)/7th Temple - Under The Burning Sun (US Psych Rock 1978) (@256)'
p11
aS'/nas/Downloaded Torrents/25_More_Rock_Albums_For_Your_Head_And_Mind_(@256-320)/Bandolero - Life Is Love, Love Is All (Puerto Rico Heavy Psych. 1970) (@256)'
p12
aS'/nas/Downloaded Torrents/25_More_Rock_Albums_For_Your_Head_And_Mind_(@256-320)/Bang - Bang (1st Album Outstanding Hardrock US 1971) (@320)'
p13
aS'/nas/Downloaded Torrents/25_More_Rock_Albums_For_Your_Head_And_Mind_(@256-320)/Bead Game - Welcome (Great Psychedelic Rock US 1970) (@256)'
p14
aS'/nas/Downloaded Torrents/25_More_Rock_Albums_For_Your_Head_And_Mind_(@256-320)/Beauregard Ajax - Deep Priscilla (Great Psychedelia US 1967-68) (@256)'
p15
aS'/nas/Downloaded Torrents/25_More_Rock_Albums_For_Your_Head_And_Mind_(@256-320)/Bob Smith - The Visit (Superb Psychedelia US 1970) (@256)'
p16
aS'/nas/Downloaded Torrents/25_More_Rock_Albums_For_Your_Head_And_Mind_(@256-320)/Bold - Lullaby Opus Four (Late 60s Folk Rock US 1969) (@256)'
p17
aS'/nas/Downloaded Torrents/25_More_Rock_Albums_For_Your_Head_And_Mind_(@256-320)/Boot - Boot (US Hardrock 1972) (@256)'
p18
aS'/nas/Downloaded Torrents/25_More_Rock_Albums_For_Your_Head_And_Mind_(@256-320)/Breakthru - Adventures Highway (2CD) (Psychedelia UK 1967-70) (@256)/CD1'
p19
aS'/nas/Downloaded Torrents/25_More_Rock_Albums_For_Your_Head_And_Mind_(@256-320)/Breakthru - Adventures Highway (2CD) (Psychedelia UK 1967-70) (@256)/CD2'
p20
aS'/nas/Downloaded Torrents/25_More_Rock_Albums_For_Your_Head_And_Mind_(@256-320)/Buzzy Linhart - Buzzy (Good UK-US Acid-Influenced Folkrock 1968) (@256)'
p21
aS'/nas/Downloaded Torrents/25_More_Rock_Albums_For_Your_Head_And_Mind_(@256-320)/Chick Shannon & The Last Exit Band - Tears On The Console (1975) (@256)'
p22
aS'/nas/Downloaded Torrents/25_More_Rock_Albums_For_Your_Head_And_Mind_(@256-320)/Cold Sun - Dark Shadows (Superb Psychedelic Rock US 1970) (@256)'
p23
aS'/nas/Downloaded Torrents/25_More_Rock_Albums_For_Your_Head_And_Mind_(@256-320)/Creepy John Thomas - Brother Bat Boone & Selftitled (UK Hardrock 1969-72) (@256)'
p24
aS'/nas/Downloaded Torrents/25_More_Rock_Albums_For_Your_Head_And_Mind_(@256-320)/Fat - Selftitled (East Coast Bluesrock US 1970) (@256)'
p25
aS'/nas/Downloaded Torrents/25_More_Rock_Albums_For_Your_Head_And_Mind_(@256-320)/Felt - Felt (US Psychedelic Rock From Alabama 1971) (@256)'
p26
aS'/nas/Downloaded Torrents/25_More_Rock_Albums_For_Your_Head_And_Mind_(@256-320)/Flood - The Rise of (Rare Psychedelic Rock from NY 1972) (@256)'
p27
aS'/nas/Downloaded Torrents/25_More_Rock_Albums_For_Your_Head_And_Mind_(@256-320)/George Brigman - Jungle Rot (Stooges Like Fuzz Rock US 1975 & Bonus) (@256)'
p28
aS'/nas/Downloaded Torrents/25_More_Rock_Albums_For_Your_Head_And_Mind_(@256-320)/George Brigman - Jungle Rot (Stooges Like Fuzz Rock US 1975 & Bonus) (@256)/George Brigman & Split - Unreleased Fuzz 1977 (@320) (Bootleg)'
p29
aS'/nas/Downloaded Torrents/25_More_Rock_Albums_For_Your_Head_And_Mind_(@256-320)/Gold - Mission Rock (Live) (Very Good Hardrock US 1971) (@256)'
p30
aS'/nas/Downloaded Torrents/25_More_Rock_Albums_For_Your_Head_And_Mind_(@256-320)/Gold - Oregins S.F. 1970 (Great Heavyrock US 1970) (@256)'
p31
aS'/nas/Downloaded Torrents/25_More_Rock_Albums_For_Your_Head_And_Mind_(@256-320)/Gordon Jackson - Thinking Back (Rare Acid Folkrock UK 1969) (@256)'
p32
aS'/nas/Downloaded Torrents/25_More_Rock_Albums_For_Your_Head_And_Mind_(@256-320)/High Treason - High Treason (Great Psychedelic Rock US 1969) (@256)'
p33
aS'/nas/Downloaded Torrents/Blackmill - Miracle (2011) WEB- FLAC'
p34
aS'/nas/Downloaded Torrents/Buena Vista Social Club - Realidad en Vivo (2012)'
p35
aS'/nas/Downloaded Torrents/Complete Chicago House Classics'
p36
aS'/nas/Downloaded Torrents/Concept 1 - 96/Concept 1 - 96 CD (1998) (FLAC)'
p37
aS'/nas/Downloaded Torrents/Concept 1 - 96/Concept 1 - 96 VR (1998) (FLAC)'
p38
aS'/nas/Downloaded Torrents/Courtney Barnett - A Sea Of Split Peas (2013)'
p39
aS'/nas/Downloaded Torrents/Destroy All Software'
p40
aS'/nas/Downloaded Torrents/Fools Gold (2008)'
p41
aS'/nas/Downloaded Torrents/Foreign Beggars/01. Albums/2003 - Asylum Speakers'
p42
aS'/nas/Downloaded Torrents/Foreign Beggars/01. Albums/2006 - Bukkake Ski Trip'
p43
aS'/nas/Downloaded Torrents/Foreign Beggars/01. Albums/2006 - Stray Point Agenda'
p44
aS'/nas/Downloaded Torrents/Foreign Beggars/01. Albums/2008 - Asylum Agenda'
p45
aS'/nas/Downloaded Torrents/Foreign Beggars/01. Albums/2009 - United Colours of Beggattron'
p46
aS'/nas/Downloaded Torrents/Foreign Beggars/02. Singles & EPs/2002 - Where Did The Sun Go [VLS]'
p47
aS"/nas/Downloaded Torrents/Foreign Beggars/02. Singles & EPs/2003 - Season's Beatings [VLS]"
p48
aS'/nas/Downloaded Torrents/Foreign Beggars/02. Singles & EPs/2005 - Crypt Drawl EP'
p49
aS'/nas/Downloaded Torrents/Foreign Beggars/02. Singles & EPs/2005 - Let Go [VLS]'
p50
aS'/nas/Downloaded Torrents/Foreign Beggars/02. Singles & EPs/2006 - Slow Broiled Ilk EP'
p51
aS'/nas/Downloaded Torrents/Foreign Beggars/02. Singles & EPs/2007 - In It For A Minute-BW-Black Hole Prophecies [VLS]'
p52
aS'/nas/Downloaded Torrents/Foreign Beggars/02. Singles & EPs/2008 - Hit that Gash (Vs Rouge A Levres)'
p53
aS'/nas/Downloaded Torrents/Foreign Beggars/02. Singles & EPs/2009 - Contact (with Noisia)'
p54
aS'/nas/Downloaded Torrents/Foreign Beggars/02. Singles & EPs/2009 - Seven Figure Swagger'
p55
aS'/nas/Downloaded Torrents/Foreign Beggars/02. Singles & EPs/2009 - Typhoon, Harry (Bare Noize Remix)'
p56
aS'/nas/Downloaded Torrents/Foreign Beggars/02. Singles & EPs/2010 - Beggattron Remixed EP 1'
p57
aS'/nas/Downloaded Torrents/Foreign Beggars/02. Singles & EPs/2010 - Beggattron Remixed EP 2'
p58
aS'/nas/Downloaded Torrents/Foreign Beggars/02. Singles & EPs/2010 - No Holds Barred & Get A Bit More (Remixes)'
p59
aS'/nas/Downloaded Torrents/Glassjaw Discography/Albums/Glassjaw - Everything You Ever Wanted To Know About Silence (Original, FLAC)'
p60
aS'/nas/Downloaded Torrents/Glassjaw Discography/Albums/Glassjaw - Everything You Ever Wanted to Know About Silence [FLAC] [Japan]'
p61
aS'/nas/Downloaded Torrents/Glassjaw Discography/Albums/Glassjaw - Worship and Tribute (Album Advance) FLAC'
p62
aS'/nas/Downloaded Torrents/Glassjaw Discography/Singles & Eps/Glassjaw - 2011 - Coloring Book (EP) (FLAC)'
p63
aS'/nas/Downloaded Torrents/Glassjaw Discography/Singles & Eps/Glassjaw - 2011 - Our Color Green (The Singles) [FLAC]'
p64
aS'/nas/Downloaded Torrents/Glassjaw Discography/Singles & Eps/Glassjaw - All Good Junkies Go To Heaven (FLAC) WEB'
p65
aS'/nas/Downloaded Torrents/HP Lovecraft - Two Classic Albums  (us psychedelic folk rock - Flac)'
p66
aS'/nas/Downloaded Torrents/Jefferson Airplane - After Bathing at Baxters (2013) [Culture Factory] FLAC Beolab1700'
p67
aS'/nas/Downloaded Torrents/Junior Boys (FLAC)/2004 - Last Exit (2xCD) [DNO 38]/Disk 1'
p68
aS'/nas/Downloaded Torrents/Junior Boys (FLAC)/2004 - Last Exit (2xCD) [DNO 38]/Disk 2'
p69
aS'/nas/Downloaded Torrents/Junior Boys (FLAC)/2004 - Last Exit [KIN003]'
p70
aS'/nas/Downloaded Torrents/Junior Boys (FLAC)/2006 - So This Is Goodbye [DNO 114]'
p71
aS'/nas/Downloaded Torrents/Junior Boys (FLAC)/2007 - So This Is Goodbye (2xCD) [DNO 150]/Disc 1'
p72
aS'/nas/Downloaded Torrents/Junior Boys (FLAC)/2007 - So This Is Goodbye (2xCD) [DNO 150]/Disc 2'
p73
aS'/nas/Downloaded Torrents/Junior Boys (FLAC)/2009 - Begone Dull Care [DNO 215]'
p74
aS"/nas/Downloaded Torrents/Junior Boys (FLAC)/2011 - It's All True [DNO 293]"
p75
aS'/nas/Downloaded Torrents/Kaleidoscope (UK)/Kaleidoscope - 1967 - Tangerine Dream'
p76
aS'/nas/Downloaded Torrents/Kaleidoscope (UK)/Kaleidoscope - 1969 - Faintly Blowing'
p77
aS'/nas/Downloaded Torrents/Kaleidoscope (UK)/Kaleidoscope - 1971 - White Faced Lady'
p78
aS'/nas/Downloaded Torrents/Kendrick Lamar - To Pimp A Butterfly (2015)'
p79
aS'/nas/Downloaded Torrents/Koan Discography/Coastline EP (2007)'
p80
aS'/nas/Downloaded Torrents/Koan Discography/Daniel Roeth - bamboo grove EP (2006)'
p81
aS'/nas/Downloaded Torrents/Koan Discography/KOAN - Frontiers (2000)'
p82
aS'/nas/Downloaded Torrents/Koan Discography/Koan -  Big Blue Mix 2014'
p83
aS'/nas/Downloaded Torrents/Koan Discography/Koan - Argonautica (2012)'
p84
aS"/nas/Downloaded Torrents/Koan Discography/Koan - Ariadne's Thread (2013)"
p85
aS"/nas/Downloaded Torrents/Koan Discography/Koan - Circe's Touch Remixes Vol 1 (2011)"
p86
aS"/nas/Downloaded Torrents/Koan Discography/Koan - Circe's Touch Remixes vol.2-2011"
p87
aS'/nas/Downloaded Torrents/Koan Discography/Koan - Fulfilled Wish (EP) (Sun Station 2007)'
p88
aS'/nas/Downloaded Torrents/Koan Discography/Koan - Koan Box \xe2\x80\x94 @ Blue Tunes (2014)'
p89
aS'/nas/Downloaded Torrents/Koan Discography/Koan - Legends  2010'
p90
aS'/nas/Downloaded Torrents/Koan Discography/Koan - Legends  2010/CD1 Inhale'
p91
aS'/nas/Downloaded Torrents/Koan Discography/Koan - Legends  2010/CD2 Exhale'
p92
aS'/nas/Downloaded Torrents/Koan Discography/Koan - Mitakuye Oyasin EP 2012'
p93
aS'/nas/Downloaded Torrents/Koan Discography/Koan - Red Path (2013)'
p94
aS'/nas/Downloaded Torrents/Koan Discography/koan - matariki (2009)'
p95
aS'/nas/Downloaded Torrents/Love - Forever Changes [FLAC]'
p96
aS'/nas/Downloaded Torrents/M83 - 2003 - Dead Cities, Red Seas and Lost Ghosts (2004 US 2CDs)/Dead Cities, Red Seas & Lost Ghosts'
p97
aS'/nas/Downloaded Torrents/M83 - 2003 - Dead Cities, Red Seas and Lost Ghosts (2004 US 2CDs)/Dead Cities, Red Seas & Lost Ghosts (Bonus Disc)'
p98
aS'/nas/Downloaded Torrents/MY SOLID GROUND/MY SOLID GROUND 1971 - My Solid Ground'
p99
aS'/nas/Downloaded Torrents/MY SOLID GROUND/MY SOLID GROUND 1971 - SWF Session'
p100
aS'/nas/Downloaded Torrents/Marina & The Diamonds - 2015 - Froot [FLAC]'
p101
aS'/nas/Downloaded Torrents/Noveller - Fantastic Planet (2015)'
p102
aS'/nas/Downloaded Torrents/Octave One - (2011) Revisited; Here, There, and Beyond [FLAC]'
p103
asS'/nas/Downloaded Torrents/25_More_Rock_Albums_For_Your_Head_And_Mind_(@256-320)'
p104
(lp105
S'/nas/Downloaded Torrents/25_More_Rock_Albums_For_Your_Head_And_Mind_(@256-320)/Curt Newbury - Half a Month of May Days (US Acid-Folk 1970) (@256)'
p106
aS'/nas/Downloaded Torrents/25_More_Rock_Albums_For_Your_Head_And_Mind_(@256-320)/Dragonwyck - Dragonwyck (Very Good Psychedelia US 1968-70) (@256)'
p107
aS'/nas/Downloaded Torrents/25_More_Rock_Albums_For_Your_Head_And_Mind_(@256-320)/Earthen Vessel - Earthen Vessel (Heavy Psychedelia US 1970) (@256)'
p108
aS'/nas/Downloaded Torrents/25_More_Rock_Albums_For_Your_Head_And_Mind_(@256-320)/Ellison - Selftitled (Superb Canadian Hardrock 1971) (@256)'
p109
assS'taghistory'
p110
c__builtin__
set
p111
((lp112
(S"/nas/Downloaded Torrents/Screamin' Jay Hawkins/1977 - I Put A Spell On You [Versatile, NED 1125]"
p113
tp114
a(S'/nas/Downloaded Torrents/Love - Forever Changes [FLAC]'
p115
tp116
a(S'/nas/Downloaded Torrents/[Richie Hawtin]/Richie Hawtin/Compilations/(2002) VA - The Sound Of The Third Season [CORMIX004]'
p117
tp118
a(S'/nas/Downloaded Torrents/[Richie Hawtin]/Plastikman/Singles & EP/(1997) Sickness [PLUS8058]'
p119
tp120
a(S'/nas/Downloaded Torrents/Moderat - II (Deluxe) [2013]'
p121
tp122
a(S'/nas/Downloaded Torrents/Miles Davis Kind Of Blue [FLAC+MP3](Big Papi) 1997 Remaster Jazz/FLAC'
p123
tp124
a(S'/nas/Downloaded Torrents/[Richie Hawtin]/Richie Hawtin/Singles & EP/(1997) 005 [PLUS8068]'
p125
tp126
a(S'/nas/Downloaded Torrents/KING CRIMSON/[2011] A Scarcity Of Miracles (A King Crimson ProjeKct)'
p127
tp128
a(S'/nas/Downloaded Torrents/God Is An Astronaut - Discography - 2002-2013/Albums (Re-Issue)/2007 - Far From Refuge (2011 Remastered) - (320 kbps)'
p129
tp130
a(S'/nas/Downloaded Torrents/Koan Discography/Koan - Mitakuye Oyasin EP 2012'
p131
tp132
a(S'/nas/Downloaded Torrents/Foreign Beggars/02. Singles & EPs/2009 - Typhoon, Harry (Bare Noize Remix)'
p133
tp134
a(S'/nas/Downloaded Torrents/25_More_Rock_Albums_For_Your_Head_And_Mind_(@256-320)/Gold - Mission Rock (Live) (Very Good Hardrock US 1971) (@256)'
p135
tp136
a(S'/nas/Downloaded Torrents/Sigur Ro\xcc\x81s/Sigur Ro\xcc\x81s [Studio Album Discography] [5 CD] [FLAC] [CodeTempest]/[DISCS]/[1997]    Von'
p137
tp138
a(S'/nas/Downloaded Torrents/[Richie Hawtin]/Other/(1996) Concept 1 - Concept 1 [9601 - 9612]/[1996] Concept 1 - 96-12'
p139
tp140
a(S"/nas/Downloaded Torrents/Screamin' Jay Hawkins/1990 - Voodoo Jive (The Best of Screamin' Jay Hawkins)"
p141
tp142
a(S'/nas/Downloaded Torrents/Foreign Beggars/02. Singles & EPs/2010 - Beggattron Remixed EP 2'
p143
tp144
a(S'/nas/Downloaded Torrents/12.Monkeys.S01E10.HDTV.x264-ASAP[ettv]/Sample'
p145
tp146
a(S'/nas/Downloaded Torrents/Jon Hopkins/2004 - Jon Hopkins - Contact Note'
p147
tp148
a(S'/nas/Downloaded Torrents/God Is An Astronaut - Discography - 2002-2013/Albums (CD Original)/2005 - All Is Violent, All Is Bright - (320 kbps)'
p149
tp150
a(S'/nas/Downloaded Torrents/Jon Hopkins/2009 - Jon Hopkins - Insides'
p151
tp152
a(S'/nas/Downloaded Torrents/[Richie Hawtin]/Richie Hawtin/Compilations/(2008) VA - Sounds from Can Elles [MINUS 71]'
p153
tp154
a(S'/nas/Downloaded Torrents/[Richie Hawtin]/Plastikman/Singles & EP/(2004) I Dont Know [MINUS 19]'
p155
tp156
a(S'/nas/Downloaded Torrents/[Richie Hawtin]/Other/(1996) Concept 1 - Concept 1 [9601 - 9612]/[1996] Concept 1 - 96-09'
p157
tp158
a(S'/nas/Downloaded Torrents/Jon Hopkins/2011 - King Creosote & Jon Hopkins - Diamond Mine'
p159
tp160
a(S'/nas/Downloaded Torrents/[Richie Hawtin]/Plastikman/Singles & EP/(2002) Spastik [PLUS8078]'
p161
tp162
a(S'/nas/Downloaded Torrents/Foreign Beggars/02. Singles & EPs/2005 - Let Go [VLS]'
p163
tp164
a(S'/nas/Downloaded Torrents/[Richie Hawtin]/F.U.S.E/Singles & EP/(1995) Loop [PLUS8054]'
p165
tp166
a(S"/nas/Downloaded Torrents/Screamin' Jay Hawkins/2005 - I Put A Spell On You (The Best Of) [Master Classics, MCS 8043-2]"
p167
tp168
a(S'/nas/Downloaded Torrents/[Richie Hawtin]/Richie Hawtin/Singles & EP/(1999) Orange EP [none]'
p169
tp170
a(S"/nas/Downloaded Torrents/Screamin' Jay Hawkins/1991 - Cow Fingers And Mosquito Pie"
p171
tp172
a(S'/nas/Downloaded Torrents/Junior Boys (FLAC)/2007 - So This Is Goodbye (2xCD) [DNO 150]/Disc 1'
p173
S'/nas/Downloaded Torrents/Junior Boys (FLAC)/2007 - So This Is Goodbye (2xCD) [DNO 150]/Disc 2'
p174
tp175
a(S'/nas/Downloaded Torrents/[Richie Hawtin]/Other/(2007) Concept 1 - Concept 1 - 96CDVR [96CDVR]/96VR'
p176
tp177
a(S'/nas/Downloaded Torrents/God Is An Astronaut - Discography - 2002-2013/Albums (CD Original)/2010 - Age Of The Fifth Sun - (320 kbps)'
p178
tp179
a(S'/nas/Downloaded Torrents/[Richie Hawtin]/Plastikman/Singles & EP/(1998) Hypokondriak-Afrika [MINUS 03]'
p180
tp181
a(S'/nas/Downloaded Torrents/[Richie Hawtin]/Other/(2007) Concept 1 - Concept 1 - 96CDVR [96CDVR]/CD96'
p182
tp183
a(S'/nas/Downloaded Torrents/[Richie Hawtin]/Richie Hawtin/Compilations/(2007) VA - Nothing Much and Something More [MINUS 53 CD]/Richie Hawtin - Nothing Much (CD1)'
p184
tp185
a(S'/nas/Downloaded Torrents/Foreign Beggars/02. Singles & EPs/2002 - Where Did The Sun Go [VLS]'
p186
tp187
a(S'/nas/Downloaded Torrents/Sigur Ro\xcc\x81s/Sigur Ro\xcc\x81s [Studio Album Discography] [5 CD] [FLAC] [CodeTempest]/[DISCS]/[2008]    Me\xc3\xb0 su\xc3\xb0 i\xcc\x81 eyrum vi\xc3\xb0 spilum endalaust'
p188
tp189
a(S'/nas/Downloaded Torrents/God Is An Astronaut - Discography - 2002-2013/EPs/2006 - A Moment Of Stillness EP (2011 Remastered) - (320 kbps)'
p190
tp191
a(S'/nas/Downloaded Torrents/Koan Discography/Koan - Fulfilled Wish (EP) (Sun Station 2007)'
p192
tp193
a(S'/nas/Downloaded Torrents/Black Dog Productions - Bytes (1993) FLAC'
p194
tp195
a(S'/nas/Downloaded Torrents/Glassjaw Discography/Singles & Eps/Glassjaw - All Good Junkies Go To Heaven (FLAC) WEB'
p196
tp197
a(S'/nas/Downloaded Torrents/[Richie Hawtin]/Richie Hawtin/Compilations/(2001) DE9 Closer to the Edit [MINUS 08 CD]'
p198
tp199
a(S"/nas/Downloaded Torrents/Screamin' Jay Hawkins/1998 - At Last"
p200
tp201
a(S'/nas/Downloaded Torrents/Jon Hopkins/2010 - Jon Hopkins - Monsters'
p202
tp203
a(S'/nas/Downloaded Torrents/[Richie Hawtin]/F.U.S.E/Singles & EP/(2001) Hypnofreak  NT [PLUS8076]'
p204
tp205
a(S'/nas/Downloaded Torrents/25_More_Rock_Albums_For_Your_Head_And_Mind_(@256-320)/Curt Newbury - Half a Month of May Days (US Acid-Folk 1970) (@256)'
p206
tp207
a(S'/nas/Downloaded Torrents/25_More_Rock_Albums_For_Your_Head_And_Mind_(@256-320)/Breakthru - Adventures Highway (2CD) (Psychedelia UK 1967-70) (@256)/CD1'
p208
S'/nas/Downloaded Torrents/25_More_Rock_Albums_For_Your_Head_And_Mind_(@256-320)/Breakthru - Adventures Highway (2CD) (Psychedelia UK 1967-70) (@256)/CD2'
p209
tp210
a(S'/nas/Downloaded Torrents/Blackmill - Miracle (2011) WEB- FLAC'
p211
tp212
a(S'/nas/Downloaded Torrents/25_More_Rock_Albums_For_Your_Head_And_Mind_(@256-320)/Felt - Felt (US Psychedelic Rock From Alabama 1971) (@256)'
p213
tp214
a(S'/nas/Downloaded Torrents/[Richie Hawtin]/Other/(1996) Concept 1 - Concept 1 [9601 - 9612]/[1996] Concept 1 - 96-11'
p215
tp216
a(S'/nas/Downloaded Torrents/[Richie Hawtin]/Plastikman/Mixes/(2010) Plastikman Exclusive Mix [URB Magazine]'
p217
tp218
a(S'/nas/Downloaded Torrents/[Richie Hawtin]/F.U.S.E/Singles & EP/(1999) Epok CD [MINUS 5 CD]'
p219
tp220
a(S'/nas/Downloaded Torrents/KING CRIMSON/[1998] Space Groove (by ProjeKct TWO)/[CD1] Volume One - Space Groove'
p221
S'/nas/Downloaded Torrents/KING CRIMSON/[1998] Space Groove (by ProjeKct TWO)/[CD2] Volume Two - Vector Patrol'
p222
tp223
a(S"/nas/Downloaded Torrents/Screamin' Jay Hawkins/1990 - Spellbound"
p224
tp225
a(S'/nas/Downloaded Torrents/M83 - 2003 - Dead Cities, Red Seas and Lost Ghosts (2004 US 2CDs)/Dead Cities, Red Seas & Lost Ghosts (Bonus Disc)'
p226
tp227
a(S'/nas/Downloaded Torrents/[Richie Hawtin]/F.U.S.E/Singles & EP/(1993) Train-Tracs [TVT 8708-2]'
p228
tp229
a(S'/nas/Downloaded Torrents/[Richie Hawtin]/Plastikman/Singles & EP/(1996) Plastikprodukts Member CD.1996 [PPCD01]'
p230
tp231
a(S'/nas/Downloaded Torrents/25_More_Rock_Albums_For_Your_Head_And_Mind_(@256-320)/High Treason - High Treason (Great Psychedelic Rock US 1969) (@256)'
p232
tp233
a(S'/nas/Downloaded Torrents/KING CRIMSON/[2000] Heaven & Earth (by ProjeKct X)'
p234
tp235
a(S'/nas/Downloaded Torrents/Tim Hecker/2013 - Virgins'
p236
tp237
a(S'/nas/Downloaded Torrents/Foreign Beggars/02. Singles & EPs/2010 - Beggattron Remixed EP 1'
p238
tp239
a(S'/nas/Downloaded Torrents/[Richie Hawtin]/Plastikman/Singles & EP/(2002) Spastik (remastered) [12nomu28]'
p240
tp241
a(S'/nas/Downloaded Torrents/[Richie Hawtin]/Plastikman/Singles & EP/(2002) Kontakt [MINUSK1]'
p242
tp243
a(S'/nas/Downloaded Torrents/[Richie Hawtin]/Richie Hawtin/Compilations/(1994) VA - Richie Hawtin & John Acquaviva - X-Mix-3 - Enter Digital Reality! [!K7032CD]'
p244
tp245
a(S'/nas/Downloaded Torrents/KING CRIMSON/[1971] Islands'
p246
tp247
a(S'/nas/Downloaded Torrents/Jon Hopkins/2013 - Jon Hopkins - How I Live Now'
p248
tp249
a(S'/nas/Downloaded Torrents/25_More_Rock_Albums_For_Your_Head_And_Mind_(@256-320)/Dragonwyck - Dragonwyck (Very Good Psychedelia US 1968-70) (@256)'
p250
tp251
a(S'/nas/Downloaded Torrents/[Richie Hawtin]/Richie Hawtin/Pete Namlook & Richie Hawtin/(2000) From Within II [MINUS FW 2-4]'
p252
tp253
a(S"/nas/Downloaded Torrents/Screamin' Jay Hawkins/2006 - At Home with Screamin' Jay Hawkins"
p254
tp255
a(S'/nas/Downloaded Torrents/25_More_Rock_Albums_For_Your_Head_And_Mind_(@256-320)/Gold - Oregins S.F. 1970 (Great Heavyrock US 1970) (@256)'
p256
tp257
a(S'/nas/Downloaded Torrents/Glassjaw Discography/Singles & Eps/Glassjaw - 2011 - Our Color Green (The Singles) [FLAC]'
p258
tp259
a(S"/nas/Downloaded Torrents/Screamin' Jay Hawkins/1991 - I Shake My Stick At You"
p260
tp261
a(S'/nas/Downloaded Torrents/KING CRIMSON/[1982] Beat'
p262
tp263
a(S'/nas/Downloaded Torrents/KING CRIMSON/[2002][EP] Happy With What You Have To Be Happy With'
p264
tp265
a(S'/nas/Downloaded Torrents/[Richie Hawtin]/Richie Hawtin/Compilations/(1999) Decks, EFX & 909 [MINUS 04 CD]'
p266
tp267
a(S'/nas/Downloaded Torrents/!Syd Barret/! FLAC/Syd Barrett - 1969 - The Madcap Laughs'
p268
tp269
a(S'/nas/Downloaded Torrents/God Is An Astronaut - Discography - 2002-2013/Singles/2009 - Shining Through (Single)'
p270
tp271
a(S'/nas/Downloaded Torrents/[Richie Hawtin]/Richie Hawtin/Mixes/(2008) RA.100 [RA.100]'
p272
tp273
a(S'/nas/Downloaded Torrents/[Richie Hawtin]/Other/(1996) Concept 1 - Concept 1 [9601 - 9612]/[1996] Concept 1 - 96-02'
p274
tp275
a(S"/nas/Downloaded Torrents/Foreign Beggars/02. Singles & EPs/2003 - Season's Beatings [VLS]"
p276
tp277
a(S'/nas/Downloaded Torrents/[Richie Hawtin]/Plastikman/Singles & EP/(1993) Krakpot [12 NoMu 25]'
p278
tp279
a(S'/nas/Downloaded Torrents/Glassjaw Discography/Singles & Eps/Glassjaw - 2011 - Coloring Book (EP) (FLAC)'
p280
tp281
a(S'/nas/Downloaded Torrents/[Richie Hawtin]/Plastikman/Albums/(1994) Musik [PLUS8043]'
p282
tp283
a(S'/nas/Downloaded Torrents/Marina & The Diamonds - 2015 - Froot [FLAC]'
p284
tp285
a(S'/nas/Downloaded Torrents/!Syd Barret/! FLAC/Syd Barrett - 1970 - The Peel Sessions'
p286
tp287
a(S'/nas/Downloaded Torrents/[Richie Hawtin]/Other/(1996) Concept 1 - Concept 1 [9601 - 9612]/[1996] Concept 1 - 96-10'
p288
tp289
a(S'/nas/Downloaded Torrents/!Syd Barret/! FLAC/Syd Barrett - 1988 - Opel - 1969-70'
p290
tp291
a(S'/nas/Downloaded Torrents/[Richie Hawtin]/Plastikman/Albums/(1998) Consumed [MINUS 01 CD]'
p292
tp293
a(S'/nas/Downloaded Torrents/Courtney Barnett - A Sea Of Split Peas (2013)'
p294
tp295
a(S"/nas/Downloaded Torrents/Screamin' Jay Hawkins/2000 - Best Of The Bizarre Sessions (1990..94)"
p296
tp297
a(S'/nas/Downloaded Torrents/Acoustica - Alarm Will Sound Performs Aphex Twin'
p298
tp299
a(S'/nas/Downloaded Torrents/Foreign Beggars/02. Singles & EPs/2009 - Seven Figure Swagger'
p300
tp301
a(S'/nas/Downloaded Torrents/God Is An Astronaut - Discography - 2002-2013/Singles/2010 - In The Distance Fading (Single) - (320 kbps)'
p302
tp303
a(S'/nas/Downloaded Torrents/Jon Hopkins/2010 - Brian Eno, Jon Hopkins & Leo Abrahams - Small Craft On A Milk Sea'
p304
tp305
a(S'/nas/Downloaded Torrents/[Richie Hawtin]/Richie Hawtin/Compilations/(2001) DE9  Closer To The Edit (Parts) [MINUS 08 LP]'
p306
tp307
a(S'/nas/Downloaded Torrents/[Richie Hawtin]/Plastikman/Albums/(1998) Artefakts (BC) [MINUS 03 CD]'
p308
tp309
a(S'/nas/Downloaded Torrents/God Is An Astronaut - Discography - 2002-2013/Singles/2003 - Point Pleasant (Single) - (320 kbps)'
p310
tp311
a(S'/nas/Downloaded Torrents/[Richie Hawtin]/Richie Hawtin/Singles & EP/(1999) Minus Yellow [MINUS Yellow]'
p312
tp313
a(S'/nas/Downloaded Torrents/Destroy All Software'
p314
tp315
a(S'/nas/Downloaded Torrents/[Richie Hawtin]/Plastikman/Albums/(2003) Closer [MINUS 18 CD]'
p316
tp317
a(S'/nas/Downloaded Torrents/Koan Discography/Koan - Legends  2010'
p318
S'/nas/Downloaded Torrents/Koan Discography/Koan - Legends  2010/CD1 Inhale'
p319
S'/nas/Downloaded Torrents/Koan Discography/Koan - Legends  2010/CD2 Exhale'
p320
tp321
a(S'/nas/Downloaded Torrents/MY SOLID GROUND/MY SOLID GROUND 1971 - SWF Session'
p322
tp323
a(S"/nas/Downloaded Torrents/Koan Discography/Koan - Circe's Touch Remixes vol.2-2011"
p324
tp325
a(S'/nas/Downloaded Torrents/God Is An Astronaut - Discography - 2002-2013/Singles/2006 - Beyond The Dying Light (Single) - (320 kbps)'
p326
tp327
a(S'/nas/Downloaded Torrents/[Richie Hawtin]/Richie Hawtin/Singles & EP/(1999) Minus Orange [M_NUS ORANGE]'
p328
tp329
a(S'/nas/Downloaded Torrents/[Richie Hawtin]/Richie Hawtin/Singles & EP/(1995) Call It What You Want! [PLUS8050]'
p330
tp331
a(S'/nas/Downloaded Torrents/Silver Apples of the Moon - The Wild Bull'
p332
tp333
a(S'/nas/Downloaded Torrents/Sigur Ro\xcc\x81s/Sigur Ro\xcc\x81s [Studio Album Discography] [5 CD] [FLAC] [CodeTempest]/[DISCS]/[1999]    A\xcc\x81g\xc3\xa6tis byrjun'
p334
tp335
a(S"/nas/Downloaded Torrents/Koan Discography/Koan - Circe's Touch Remixes Vol 1 (2011)"
p336
tp337
a(S'/nas/Downloaded Torrents/[Richie Hawtin]/Plastikman/Albums/(1993) Sheet One [NoMu 22 CD]'
p338
tp339
a(S'/nas/Downloaded Torrents/MY SOLID GROUND/MY SOLID GROUND 1971 - My Solid Ground'
p340
tp341
a(S'/nas/Downloaded Torrents/God Is An Astronaut - Discography - 2002-2013/Albums (Re-Issue)/2002 - The End Of The Beginning (2011 Remastered) - (320 kbps)'
p342
tp343
a(S'/nas/Downloaded Torrents/Koan Discography/Koan - Argonautica (2012)'
p344
tp345
a(S'/nas/Downloaded Torrents/Buena Vista Social Club - Realidad en Vivo (2012)'
p346
tp347
a(S'/nas/Downloaded Torrents/[Richie Hawtin]/Other/(1996) Concept 1 - Concept 1 [9601 - 9612]/[1996] Concept 1 - 96-03'
p348
tp349
a(S"/nas/Downloaded Torrents/Junior Boys (FLAC)/2011 - It's All True [DNO 293]"
p350
tp351
a(S'/nas/Downloaded Torrents/God Is An Astronaut - Discography - 2002-2013/Albums (Re-Issue)/2008 - God Is An Astronaut (2011 Remastered) - (320 kbps)'
p352
tp353
a(S'/nas/Downloaded Torrents/Sigur Ro\xcc\x81s/Sigur Ro\xcc\x81s [Studio Album Discography] [5 CD] [FLAC] [CodeTempest]'
p354
tp355
a(S'/nas/Downloaded Torrents/[Richie Hawtin]/Richie Hawtin/Compilations/(2006) DE9  Transitions [NoMu 150 CD]'
p356
tp357
a(S'/nas/Downloaded Torrents/25_More_Rock_Albums_For_Your_Head_And_Mind_(@256-320)/7th Temple - Under The Burning Sun (US Psych Rock 1978) (@256)'
p358
tp359
a(S'/nas/Downloaded Torrents/God Is An Astronaut - Discography - 2002-2013/Albums (Re-Issue)/2005 - All Is Violent, All Is Bright (2011 Remastered) - (320 kbps)'
p360
tp361
a(S'/nas/Downloaded Torrents/God Is An Astronaut - Discography - 2002-2013/Singles/2003 - From Dust To The Beyond (Single) - (320 kbps)'
p362
tp363
a(S'/nas/Downloaded Torrents/Koan Discography/Koan -  Big Blue Mix 2014'
p364
tp365
a(S'/nas/Downloaded Torrents/Foreign Beggars/01. Albums/2009 - United Colours of Beggattron'
p366
tp367
a(S'/nas/Downloaded Torrents/God Is An Astronaut - Discography - 2002-2013/Singles/2013 - Spiral Code (Single) - (320 kbps)'
p368
tp369
a(S'/nas/Downloaded Torrents/Glassjaw Discography/Albums/Glassjaw - Everything You Ever Wanted to Know About Silence [FLAC] [Japan]'
p370
tp371
a(S'/nas/Downloaded Torrents/KING CRIMSON/[1981] Discipline'
p372
tp373
a(S"/nas/Downloaded Torrents/Screamin' Jay Hawkins/1991 - Black Music For White People"
p374
tp375
a(S'/nas/Downloaded Torrents/Glassjaw Discography/Albums/Glassjaw - Worship and Tribute (Album Advance) FLAC'
p376
tp377
a(S'/nas/Downloaded Torrents/Foreign Beggars/01. Albums/2006 - Bukkake Ski Trip'
p378
tp379
a(S'/nas/Downloaded Torrents/Koan Discography/Koan - Koan Box \xe2\x80\x94 @ Blue Tunes (2014)'
p380
tp381
a(S'/nas/Downloaded Torrents/Foreign Beggars/02. Singles & EPs/2006 - Slow Broiled Ilk EP'
p382
tp383
a(S'/nas/Downloaded Torrents/Tim Hecker/2011 - Dropped Pianos'
p384
tp385
a(S'/nas/Downloaded Torrents/[Richie Hawtin]/Richie Hawtin/Singles & EP/(2005) The Tunnel-Twin Cities [MINUS 33]'
p386
tp387
a(S'/nas/Downloaded Torrents/[Richie Hawtin]/Richie Hawtin/Compilations/(2006) DE9  Lite - Electronic Adventures [MIXMAG 05.06]'
p388
tp389
a(S'/nas/Downloaded Torrents/25_More_Rock_Albums_For_Your_Head_And_Mind_(@256-320)/Fat - Selftitled (East Coast Bluesrock US 1970) (@256)'
p390
tp391
a(S"/nas/Downloaded Torrents/Screamin' Jay Hawkins/1991 - Live And Crazy (Hotel Meridien Paris Etoile, June 16..17, 1988)"
p392
tp393
a(S'/nas/Downloaded Torrents/[Richie Hawtin]/Richie Hawtin/Compilations/(2007) VA - Nothing Much and Something More [MINUS 53 CD]/Troy Pierce - Something More (CD2)'
p394
tp395
a(S'/nas/Downloaded Torrents/Screaming Lord Sutch - Rock & Horror (FLAC)'
p396
tp397
a(S'/nas/Downloaded Torrents/Koan Discography/KOAN - Frontiers (2000)'
p398
tp399
a(S"/nas/Downloaded Torrents/Screamin' Jay Hawkins/1965 - The Night And Day Of Screamin' Jay Hawkins"
p400
tp401
a(S'/nas/Downloaded Torrents/Jefferson Airplane - After Bathing at Baxters (2013) [Culture Factory] FLAC Beolab1700'
p402
tp403
a(S'/nas/Downloaded Torrents/God Is An Astronaut - Discography - 2002-2013/Singles/2006 - Tempus Horizon (Single) - (320 kbps)'
p404
tp405
a(S'/nas/Downloaded Torrents/God Is An Astronaut - Discography - 2002-2013/Albums (CD Original)/2013 - Origins - (320 kbps)'
p406
tp407
a(S'/nas/Downloaded Torrents/Fools Gold (2008)'
p408
tp409
a(S'/nas/Downloaded Torrents/25_More_Rock_Albums_For_Your_Head_And_Mind_(@256-320)/Earthen Vessel - Earthen Vessel (Heavy Psychedelia US 1970) (@256)'
p410
tp411
a(S'/nas/Downloaded Torrents/12.Monkeys.S01E11.HDTV.x264-ASAP[ettv]/Sample'
p412
tp413
a(S'/nas/Downloaded Torrents/God Is An Astronaut - Discography - 2002-2013/Singles/2003 - The End Of The Beginning (Single) - (320 kbps)'
p414
tp415
a(S'/nas/Downloaded Torrents/25_More_Rock_Albums_For_Your_Head_And_Mind_(@256-320)/Ellison - Selftitled (Superb Canadian Hardrock 1971) (@256)'
p416
tp417
a(S'/nas/Downloaded Torrents/Complete Chicago House Classics'
p418
tp419
a(S'/nas/Downloaded Torrents/[Richie Hawtin]/Other/(1996) Concept 1 - Concept 1 [9601 - 9612]/[1996] Concept 1 - 96-04'
p420
tp421
a(S"/nas/Downloaded Torrents/Screamin' Jay Hawkins/1983 - Real Live"
p422
tp423
a(S'/nas/Downloaded Torrents/God Is An Astronaut - Discography - 2002-2013/Singles/2005 - Fire Flies And Empty Skies (Single) - (320 kbps)'
p424
tp425
a(S'/nas/Downloaded Torrents/!Syd Barret/! FLAC/Syd Barrett - 1970 - Barret'
p426
tp427
a(S'/nas/Downloaded Torrents/God Is An Astronaut - Discography - 2002-2013/Albums (Re-Issue)/2010 - Age Of The Fifth Sun (2011 Remastered) - (320 kbps)'
p428
tp429
a(S'/nas/Downloaded Torrents/Koan Discography/Koan - Red Path (2013)'
p430
tp431
a(S'/nas/Downloaded Torrents/25_More_Rock_Albums_For_Your_Head_And_Mind_(@256-320)/Flood - The Rise of (Rare Psychedelic Rock from NY 1972) (@256)'
p432
tp433
a(S"/nas/Downloaded Torrents/Screamin' Jay Hawkins/1994 - Somethin' Funny Goin' On"
p434
tp435
a(S'/nas/Downloaded Torrents/Glassjaw Discography/Albums/Glassjaw - Everything You Ever Wanted To Know About Silence (Original, FLAC)'
p436
tp437
a(S'/nas/Downloaded Torrents/[Richie Hawtin]/Plastikman/Singles & EP/(2003) Disconnect [MINUS 17]'
p438
tp439
a(S'/nas/Downloaded Torrents/25_More_Rock_Albums_For_Your_Head_And_Mind_(@256-320)/Gordon Jackson - Thinking Back (Rare Acid Folkrock UK 1969) (@256)'
p440
tp441
a(S'/nas/Downloaded Torrents/25_More_Rock_Albums_For_Your_Head_And_Mind_(@256-320)/Chick Shannon & The Last Exit Band - Tears On The Console (1975) (@256)'
p442
tp443
a(S'/nas/Downloaded Torrents/[Richie Hawtin]/Plastikman/Singles & EP/(2007) Nostalgik 3 [MINUS -3]'
p444
tp445
a(S'/nas/Downloaded Torrents/Tim Hecker/2011 - Ravedeath, 1972'
p446
tp447
a(S'/nas/Downloaded Torrents/God Is An Astronaut - Discography - 2002-2013/Singles/2007 - No Return (Single) - (320 kbps)'
p448
tp449
a(S'/nas/Downloaded Torrents/DJ Sprinkles - Midtown 120 Blues (2008) [FLAC] {2009 EU Version}'
p450
tp451
a(S'/nas/Downloaded Torrents/Miles Davis Kind Of Blue [FLAC+MP3](Big Papi) 1997 Remaster Jazz/MP3'
p452
tp453
a(S'/nas/Downloaded Torrents/Sigur Ro\xcc\x81s/Sigur Ro\xcc\x81s [Studio Album Discography] [5 CD] [FLAC] [CodeTempest]/[DISCS]/[2005]    Takk...'
p454
tp455
a(S'/nas/Downloaded Torrents/[Richie Hawtin]/Richie Hawtin/Compilations/(2002) DE9  Closer To The (R)Edit [MINUS 08 E]'
p456
tp457
a(S'/nas/Downloaded Torrents/Concept 1 - 96/Concept 1 - 96 CD (1998) (FLAC)'
p458
tp459
a(S'/nas/Downloaded Torrents/Jon Hopkins/2013 - Jon Hopkins - Immunity'
p460
tp461
a(S'/nas/Downloaded Torrents/KING CRIMSON/[2000] The ConstruKction Of Light'
p462
tp463
a(S'/nas/Downloaded Torrents/25_More_Rock_Albums_For_Your_Head_And_Mind_(@256-320)/Creepy John Thomas - Brother Bat Boone & Selftitled (UK Hardrock 1969-72) (@256)'
p464
tp465
a(S'/nas/Downloaded Torrents/Kaleidoscope (UK)/Kaleidoscope - 1969 - Faintly Blowing'
p466
tp467
a(S'/nas/Downloaded Torrents/[Richie Hawtin]/Richie Hawtin/Pete Namlook & Richie Hawtin/(2000) From Within I [MINUS FW 1-4]'
p468
tp469
a(S'/nas/Downloaded Torrents/25_More_Rock_Albums_For_Your_Head_And_Mind_(@256-320)/George Brigman - Jungle Rot (Stooges Like Fuzz Rock US 1975 & Bonus) (@256)'
p470
tp471
a(S'/nas/Downloaded Torrents/Junior Boys (FLAC)/2004 - Last Exit (2xCD) [DNO 38]/Disk 1'
p472
S'/nas/Downloaded Torrents/Junior Boys (FLAC)/2004 - Last Exit (2xCD) [DNO 38]/Disk 2'
p473
tp474
a(S"/nas/Downloaded Torrents/Screamin' Jay Hawkins/1993 - Stone Crazy"
p475
tp476
a(S'/nas/Downloaded Torrents/Tim Hecker/2012 - Instrumental Tourist  [with Daniel Lopatin]'
p477
tp478
a(S'/nas/Downloaded Torrents/KING CRIMSON/[1970][2] Lizard'
p479
tp480
a(S"/nas/Downloaded Torrents/Screamin' Jay Hawkins/1969 - I Put A Spell On You [Epic, BN 26457]"
p481
tp482
a(S'/nas/Downloaded Torrents/[Richie Hawtin]/Other/(1996) Concept 1 - Concept 1 [9601 - 9612]/[1996] Concept 1 - 96-05'
p483
tp484
a(S'/nas/Downloaded Torrents/1997 - Homogenic'
p485
tp486
a(S"/nas/Downloaded Torrents/Screamin' Jay Hawkins/1969 - What That Is!"
p487
tp488
a(S'/nas/Downloaded Torrents/The Sonics - 1966 - Boom (us garage rock,proto punk - 320k)'
p489
tp490
a(S'/nas/Downloaded Torrents/Tim Hecker/2004 - Mirages'
p491
tp492
a(S'/nas/Downloaded Torrents/Foreign Beggars/02. Singles & EPs/2005 - Crypt Drawl EP'
p493
tp494
a(S'/nas/Downloaded Torrents/[Richie Hawtin]/Richie Hawtin/Singles & EP/(2003) Hard trax vol 3 [PLUS8080]'
p495
tp496
a(S'/nas/Downloaded Torrents/Foreign Beggars/02. Singles & EPs/2009 - Contact (with Noisia)'
p497
tp498
a(S'/nas/Downloaded Torrents/[Richie Hawtin]/Richie Hawtin/Compilations/(2006) VA - 2 Kontakt RTW [KONTAKTRTW]'
p499
tp500
a(S'/nas/Downloaded Torrents/[Richie Hawtin]/F.U.S.E/Albums'
p501
S'/nas/Downloaded Torrents/[Richie Hawtin]/F.U.S.E/Albums/(1993) Dimension Intrusion [WARP CD 12]'
p502
tp503
a(S'/nas/Downloaded Torrents/God Is An Astronaut - Discography - 2002-2013/Singles/2004 - Coda (Single) - (320 kbps)'
p504
tp505
a(S'/nas/Downloaded Torrents/25_More_Rock_Albums_For_Your_Head_And_Mind_(@256-320)/Cold Sun - Dark Shadows (Superb Psychedelic Rock US 1970) (@256)'
p506
tp507
a(S'/nas/Downloaded Torrents/[Richie Hawtin]/Richie Hawtin/Compilations/(2006) VA - DE9 Combined Mixed by Richie Hawtin (Includes Japan - Only Mix) [MINUSXECD-1046 1047]'
p508
tp509
a(S'/nas/Downloaded Torrents/Derrick May - (1998) Innovator [TMT-2 CD]'
p510
S'/nas/Downloaded Torrents/Derrick May - (1998) Innovator [TMT-2 CD]/CD1'
p511
S'/nas/Downloaded Torrents/Derrick May - (1998) Innovator [TMT-2 CD]/CD2'
p512
tp513
a(S'/nas/Downloaded Torrents/Koan Discography/Daniel Roeth - bamboo grove EP (2006)'
p514
tp515
a(S'/nas/Downloaded Torrents/25_More_Rock_Albums_For_Your_Head_And_Mind_(@256-320)/Beauregard Ajax - Deep Priscilla (Great Psychedelia US 1967-68) (@256)'
p516
tp517
a(S'/nas/Downloaded Torrents/God Is An Astronaut - Discography - 2002-2013/Albums (CD Original)/2007 - Far From Refuge (Japanese Edition) - (320 kbps)'
p518
tp519
a(S'/nas/Downloaded Torrents/[Richie Hawtin]/F.U.S.E/Singles & EP/(1991) Substance Abuse [PLUS8013]'
p520
tp521
a(S'/nas/Downloaded Torrents/Carl Craig - Sessions (2008) [FLAC]'
p522
S'/nas/Downloaded Torrents/Carl Craig - Sessions (2008) [FLAC]/CD1'
p523
S'/nas/Downloaded Torrents/Carl Craig - Sessions (2008) [FLAC]/CD2'
p524
tp525
a(S'/nas/Downloaded Torrents/Kraftwerk Kover Kollection vol.1-7/music'
p526
tp527
a(S'/nas/Downloaded Torrents/25_More_Rock_Albums_For_Your_Head_And_Mind_(@256-320)/Bandolero - Life Is Love, Love Is All (Puerto Rico Heavy Psych. 1970) (@256)'
p528
tp529
a(S'/nas/Downloaded Torrents/KING CRIMSON/[1969] In The Court Of The Crimson King'
p530
tp531
a(S'/nas/Downloaded Torrents/HP Lovecraft - Two Classic Albums  (us psychedelic folk rock - Flac)'
p532
tp533
a(S'/nas/Downloaded Torrents/M83 - 2003 - Dead Cities, Red Seas and Lost Ghosts (2004 US 2CDs)/Dead Cities, Red Seas & Lost Ghosts'
p534
tp535
a(S'/nas/Downloaded Torrents/[Richie Hawtin]/Plastikman/Albums/(1994) Recycled Plastik [NMCD3019]'
p536
tp537
a(S'/nas/Downloaded Torrents/Junior Boys (FLAC)/2009 - Begone Dull Care [DNO 215]'
p538
tp539
a(S'/nas/Downloaded Torrents/Tim Hecker/2008 - Fantasma Parastasie [with Aidan Baker]'
p540
tp541
a(S'/nas/Downloaded Torrents/[Richie Hawtin]/Richie Hawtin/Pete Namlook & Richie Hawtin/(2000) From Within III [MINUS FW 3-4]'
p542
tp543
a(S"/nas/Downloaded Torrents/[Richie Hawtin]/Other/(2004) Forcept 1 - FR01 (Akufen's Concept 1 Reinterpretations Volume 1) [FR01]"
p544
tp545
a(S'/nas/Downloaded Torrents/Koan Discography/koan - matariki (2009)'
p546
tp547
a(S'/nas/Downloaded Torrents/Junior Boys (FLAC)/2004 - Last Exit [KIN003]'
p548
tp549
a(S'/nas/Downloaded Torrents/[Richie Hawtin]/Richie Hawtin/Singles & EP/(2002) Lowblow [MINUS 09]'
p550
tp551
a(S'/nas/Downloaded Torrents/KING CRIMSON/[1995] THRAK'
p552
tp553
a(S"/nas/Downloaded Torrents/KING CRIMSON/[1973] Larks' Tongues In Aspic"
p554
tp555
a(S'/nas/Downloaded Torrents/Tim Hecker/2007 - Radio Amor'
p556
tp557
a(S'/nas/Downloaded Torrents/[Richie Hawtin]/Richie Hawtin/Compilations/(2000) Selections 1990 - 2000 [HARD008CD]'
p558
tp559
a(S'/nas/Downloaded Torrents/Tim Hecker/2006 - Harmony in Ultraviolet'
p560
tp561
a(S'/nas/Downloaded Torrents/Tim Hecker/2009 - An Imaginary Country'
p562
tp563
a(S'/nas/Downloaded Torrents/Octave One - (2011) Revisited; Here, There, and Beyond [FLAC]'
p564
tp565
a(S'/nas/Downloaded Torrents/THE SONICS - !!!Here are The Sonics!!!'
p566
tp567
a(S'/nas/Downloaded Torrents/Tim Hecker/2007 - Norberg'
p568
tp569
a(S'/nas/Downloaded Torrents/[Richie Hawtin]/Other/(1996) Concept 1 - Concept 1 [9601 - 9612]/[1996] Concept 1 - 96-06'
p570
tp571
a(S'/nas/Downloaded Torrents/God Is An Astronaut - Discography - 2002-2013/EPs/2006 - A Moment Of Stillness EP - (320 kbps)'
p572
tp573
a(S'/nas/Downloaded Torrents/KING CRIMSON/[1970][1] In The Wake Of Poseidon'
p574
tp575
a(S'/nas/Downloaded Torrents/Foreign Beggars/01. Albums/2006 - Stray Point Agenda'
p576
tp577
a(S'/nas/Downloaded Torrents/KING CRIMSON/[1994][EP] VROOOM'
p578
tp579
a(S'/nas/Downloaded Torrents/Jon Hopkins/2001 - Jon Hopkins - Opalescent'
p580
tp581
a(S'/nas/Downloaded Torrents/Tim Hecker/2002 - My Love is Rotten to the Core'
p582
tp583
a(S'/nas/Downloaded Torrents/[Richie Hawtin]/F.U.S.E/Singles & EP/(1992) The Unreleased Experiments [PLUS8019]'
p584
tp585
a(S'/nas/Downloaded Torrents/KING CRIMSON/[1974][1] Starless And Bible Black'
p586
tp587
a(S'/nas/Downloaded Torrents/Tim Hecker/2004 - Mort Aux Vaches'
p588
tp589
a(S"/nas/Downloaded Torrents/Screamin' Jay Hawkins/1979 - Screamin' The Blues"
p590
tp591
a(S"/nas/Downloaded Torrents/Koan Discography/Koan - Ariadne's Thread (2013)"
p592
tp593
a(S'/nas/Downloaded Torrents/Foreign Beggars/01. Albums/2008 - Asylum Agenda'
p594
tp595
a(S'/nas/Downloaded Torrents/25_More_Rock_Albums_For_Your_Head_And_Mind_(@256-320)/George Brigman - Jungle Rot (Stooges Like Fuzz Rock US 1975 & Bonus) (@256)/George Brigman & Split - Unreleased Fuzz 1977 (@320) (Bootleg)'
p596
tp597
a(S'/nas/Downloaded Torrents/Foreign Beggars/02. Singles & EPs/2010 - No Holds Barred & Get A Bit More (Remixes)'
p598
tp599
a(S'/nas/Downloaded Torrents/God Is An Astronaut - Discography - 2002-2013/Albums (CD Original)/2002 - The End Of The Beginning (2004 Release) - (320 kbps)'
p600
tp601
a(S'/nas/Downloaded Torrents/Koan Discography/Coastline EP (2007)'
p602
tp603
a(S"/nas/Downloaded Torrents/Screamin' Jay Hawkins/1999 - Live at the Olympia, Paris CD1"
p604
S"/nas/Downloaded Torrents/Screamin' Jay Hawkins/1999 - Live at the Olympia, Paris CD2"
p605
tp606
a(S'/nas/Downloaded Torrents/[Richie Hawtin]/F.U.S.E/Singles & EP/(1990) Approach & Identify [PLUS8004]'
p607
tp608
a(S'/nas/Downloaded Torrents/25_More_Rock_Albums_For_Your_Head_And_Mind_(@256-320)/Bead Game - Welcome (Great Psychedelic Rock US 1970) (@256)'
p609
tp610
a(S'/nas/Downloaded Torrents/25_More_Rock_Albums_For_Your_Head_And_Mind_(@256-320)/Bang - Bang (1st Album Outstanding Hardrock US 1971) (@320)'
p611
tp612
a(S'/nas/Downloaded Torrents/Junior Boys (FLAC)/2006 - So This Is Goodbye [DNO 114]'
p613
tp614
a(S'/nas/Downloaded Torrents/25_More_Rock_Albums_For_Your_Head_And_Mind_(@256-320)/Bob Smith - The Visit (Superb Psychedelia US 1970) (@256)'
p615
tp616
a(S'/nas/Downloaded Torrents/Kaleidoscope (UK)/Kaleidoscope - 1971 - White Faced Lady'
p617
tp618
a(S'/nas/Downloaded Torrents/Sigur Ro\xcc\x81s/Sigur Ro\xcc\x81s [Studio Album Discography] [5 CD] [FLAC] [CodeTempest]/[DISCS]/[2002]    ( )'
p619
tp620
a(S'/nas/Downloaded Torrents/25_More_Rock_Albums_For_Your_Head_And_Mind_(@256-320)/Buzzy Linhart - Buzzy (Good UK-US Acid-Influenced Folkrock 1968) (@256)'
p621
tp622
a(S'/nas/Downloaded Torrents/[Richie Hawtin]/Richie Hawtin/Compilations/(1996) Mixmag Live! - Richie Hawtin [MMLCD 020]'
p623
tp624
a(S"/nas/Downloaded Torrents/Screamin' Jay Hawkins/1982 - Frenzy"
p625
tp626
a(S'/nas/Downloaded Torrents/God Is An Astronaut - Discography - 2002-2013/Singles/2004 - Fragile (Single) - (320 kbps)'
p627
tp628
a(S'/nas/Downloaded Torrents/Foreign Beggars/01. Albums/2003 - Asylum Speakers'
p629
tp630
a(S'/nas/Downloaded Torrents/[Richie Hawtin]/Other/(1996) Concept 1 - Concept 1 [9601 - 9612]/[1996] Concept 1 - 96-01'
p631
tp632
a(S'/nas/Downloaded Torrents/[Richie Hawtin]/Plastikman/Singles & EP/(1994) Plastique [CDNoMu34]'
p633
tp634
a(S'/nas/Downloaded Torrents/KING CRIMSON/[1974][2] Red'
p635
tp636
a(S'/nas/Downloaded Torrents/KING CRIMSON/[1984] Three Of A Perfect Pair'
p637
tp638
a(S'/nas/Downloaded Torrents/Concept 1 - 96/Concept 1 - 96 VR (1998) (FLAC)'
p639
tp640
a(S'/nas/Downloaded Torrents/[Richie Hawtin]/Plastikman/Singles & EP/(1999) PK [MINUS 02]'
p641
tp642
a(S'/nas/Downloaded Torrents/[Richie Hawtin]/Other/(1996) Concept 1 - Concept 1 [9601 - 9612]/[1996] Concept 1 - 96-07'
p643
tp644
a(S'/nas/Downloaded Torrents/25_More_Rock_Albums_For_Your_Head_And_Mind_(@256-320)/Boot - Boot (US Hardrock 1972) (@256)'
p645
tp646
a(S"/nas/Downloaded Torrents/Screamin' Jay Hawkins/1972 - Portrait Of A Man And His Woman"
p647
tp648
a(S'/nas/Downloaded Torrents/Foreign Beggars/02. Singles & EPs/2007 - In It For A Minute-BW-Black Hole Prophecies [VLS]'
p649
tp650
a(S'/nas/Downloaded Torrents/Foreign Beggars/02. Singles & EPs/2008 - Hit that Gash (Vs Rouge A Levres)'
p651
tp652
a(S'/nas/Downloaded Torrents/KING CRIMSON/[2003] The Power To Believe'
p653
tp654
a(S'/nas/Downloaded Torrents/25_More_Rock_Albums_For_Your_Head_And_Mind_(@256-320)/Bold - Lullaby Opus Four (Late 60s Folk Rock US 1969) (@256)'
p655
tp656
a(S'/nas/Downloaded Torrents/Tim Hecker/2001 - Haunt Me, Haunt Me Do It Again'
p657
tp658
a(S'/nas/Downloaded Torrents/Noveller - Fantastic Planet (2015)'
p659
tp660
a(S'/nas/Downloaded Torrents/[Richie Hawtin]/Plastikman/Singles & EP/(2005) Nostalgik.2 [MINUS -2]'
p661
tp662
a(S'/nas/Downloaded Torrents/God Is An Astronaut - Discography - 2002-2013/Albums (CD Original)/2008 - God Is An Astronaut - (320 kbps)'
p663
tp664
a(S'/nas/Downloaded Torrents/Kaleidoscope (UK)/Kaleidoscope - 1967 - Tangerine Dream'
p665
tp666
a(S'/nas/Downloaded Torrents/[Richie Hawtin]/Other/(1996) Concept 1 - Concept 1 [9601 - 9612]/[1996] Concept 1 - 96-08'
p667
tp668
a(S'/nas/Downloaded Torrents/[Richie Hawtin]/Plastikman/Singles & EP/(2004) Nostalgik.1 [MINUS -1]'
p669
tp670
a(S'/nas/Downloaded Torrents/Kendrick Lamar - To Pimp A Butterfly (2015)'
p671
tp672
a(S'/nas/Downloaded Torrents/Sleep - Dopesmoker (2012) [Southern Lord \xe2\x80\x8e\xe2\x80\x93 LORD158]'
p673
tp674
atp675
Rp676
s.